 DOT_LCD

 Timestamp is 4f86a28d (Thu Apr 12 17:38:21 2012)

 Preferred load address is 10000000

 Start         Length     Name                   Class
 0001:00000000 00000004H .CRT$XCA                CODE
 0001:00000004 00000004H .CRT$XCU                CODE
 0001:00000008 00000004H .CRT$XCZ                CODE
 0001:0000000c 00000004H .CRT$XIA                CODE
 0001:00000010 00000004H .CRT$XIZ                CODE
 0001:00000014 00000004H .CRT$XPA                CODE
 0001:00000018 00000004H .CRT$XPZ                CODE
 0001:0000001c 00000004H .CRT$XTA                CODE
 0001:00000020 00000004H .CRT$XTZ                CODE
 0001:00000030 0000050cH .rdata                  CODE
 0001:0000053c 00000024H .rdata$debug            CODE
 0001:00000560 0001be7cH .text                   CODE
 0001:0001c3dc 00000030H .text$yc                CODE
 0001:0001c40c 00000074H .xdata                  CODE
 0001:0001c480 00000014H .idata$2                CODE
 0001:0001c494 00000014H .idata$3                CODE
 0001:0001c4a8 000000a8H .idata$4                CODE
 0001:0001c550 0000000cH .idata$6                CODE
 0001:0001c560 0000004eH .edata                  CODE
 0002:00000000 000000a8H .idata$5                DATA
 0002:000000a8 0000b7bcH .data                   DATA
 0002:0000b868 00003ea8H .bss                    DATA
 0003:00000000 00000850H .pdata                  DATA

  Address         Publics by Value              Rva+Base       Lib:Object

 0000:00000000       ___safe_se_handler_count   00000000     <absolute>
 0000:00000000       ___safe_se_handler_table   00000000     <absolute>
 0001:00000000       __xc_a                     10001000     corelib0:crt0init.obj
 0001:00000008       __xc_z                     10001008     corelib0:crt0init.obj
 0001:0000000c       __xi_a                     1000100c     corelib0:crt0init.obj
 0001:00000010       __xi_z                     10001010     corelib0:crt0init.obj
 0001:00000014       __xp_a                     10001014     corelib0:crt0init.obj
 0001:00000018       __xp_z                     10001018     corelib0:crt0init.obj
 0001:0000001c       __xt_a                     1000101c     corelib0:crt0init.obj
 0001:00000020       __xt_z                     10001020     corelib0:crt0init.obj
 0001:0000004c       ??_7GPESurf@@6B@           1000104c     DOT_LCD.obj
 0001:00000050       ??_C@_1FM@GFNDLLKG@?$AAD?$AAo?$AAt?$AA_?$AAl?$AAc?$AAd?$AA?3?$AA?3?$AAD?$AAo?$AAt?$AA_?$AAl?$AAc?$AAd?$AA?3?$AA?5?$AAE?$AAr?$AAr?$AAo?$AAr?$AA?5?$AAa?$AAl?$AAl?$AAo?$AAc?$AAa?$AAt?$AAi@ 10001050     DOT_LCD.obj
 0001:000000b0       ??_7Dot_lcd@@6B@           100010b0     DOT_LCD.obj
 0001:00000130       g_NullBlendFunction        10001130     gperotate:ddi_if.obj
 0001:000001b4       ??_C@_17BJMBELJK@?$AAG?$AAP?$AAE?$AA?$AA@ 100011b4     gperotate:ddi_if.obj
 0001:000001bc       EGPEFormatToBpp            100011bc     gperotate:gpe.obj
 0001:000001e0       EGPEFormatToIFormat        100011e0     gperotate:gpe.obj
 0001:00000204       IFormatToEGPEFormat        10001204     gperotate:gpe.obj
 0001:00000230       ??_7GPE@@6B@               10001230     gperotate:gpe.obj
 0001:000002ac       ??_C@_1BM@OHJNPODK@?$AAA?$AAs?$AAp?$AAe?$AAc?$AAt?$AAR?$AAa?$AAt?$AAi?$AAo?$AAX?$AAY?$AA?$AA@ 100012ac     gperotate:gpe.obj
 0001:000002c8       ??_C@_1BK@GPCKCPMK@?$AAA?$AAs?$AAp?$AAe?$AAc?$AAt?$AAR?$AAa?$AAt?$AAi?$AAo?$AAY?$AA?$AA@ 100012c8     gperotate:gpe.obj
 0001:000002e4       ??_C@_1BK@NHJGEIKP@?$AAA?$AAs?$AAp?$AAe?$AAc?$AAt?$AAR?$AAa?$AAt?$AAi?$AAo?$AAX?$AA?$AA@ 100012e4     gperotate:gpe.obj
 0001:00000300       ??_C@_1BO@ONBCMHFO@?$AAL?$AAo?$AAg?$AAi?$AAc?$AAa?$AAl?$AAP?$AAi?$AAx?$AAe?$AAl?$AAs?$AAY?$AA?$AA@ 10001300     gperotate:gpe.obj
 0001:00000320       ??_C@_1BO@FFKOKADL@?$AAL?$AAo?$AAg?$AAi?$AAc?$AAa?$AAl?$AAP?$AAi?$AAx?$AAe?$AAl?$AAs?$AAX?$AA?$AA@ 10001320     gperotate:gpe.obj
 0001:00000340       ??_C@_1BK@HNDINEGH@?$AAV?$AAe?$AAr?$AAt?$AAi?$AAc?$AAa?$AAl?$AAS?$AAi?$AAz?$AAe?$AA?$AA@ 10001340     gperotate:gpe.obj
 0001:0000035c       ??_C@_1BO@CPEMBNKP@?$AAH?$AAo?$AAr?$AAi?$AAz?$AAo?$AAn?$AAt?$AAa?$AAl?$AAS?$AAi?$AAz?$AAe?$AA?$AA@ 1000135c     gperotate:gpe.obj
 0001:00000428       ??_C@_1GA@EAMBNKKC@?$AAG?$AAP?$AAE?$AA?3?$AA?5?$AA?$CK?$AA?$CK?$AA?5?$AAW?$AAA?$AAR?$AAN?$AAI?$AAN?$AAG?$AA?5?$AA?$CK?$AA?$CK?$AA?5?$AAS?$AAU?$AAR?$AAF?$AAO?$AAB?$AAJ?$AA?4?$AAf?$AAj?$AAB?$AAi?$AAt@ 10001428     gperotate:tmpgpesurf.obj
 0001:00000560       ??0GPESurf@@QAA@HHPAXHW4EGPEFormat@@@Z 10001560 f i DOT_LCD.obj
 0001:000005b8       ??_EGPESurf@@UAAPAXI@Z     100015b8 f i DOT_LCD.obj
 0001:000005b8       ??_GGPESurf@@UAAPAXI@Z     100015b8 f i DOT_LCD.obj
 0001:000005e0       DrvEnableDriver            100015e0 f   DOT_LCD.obj
 0001:000005f0       ??0Dot_lcd@@QAA@XZ         100015f0 f   DOT_LCD.obj
 0001:00000760       ?SetMode@Dot_lcd@@UAAJHPAPAUHPALETTE__@@@Z 10001760 f   DOT_LCD.obj
 0001:000007cc       ?GetModeInfo@Dot_lcd@@UAAJPAUGPEMode@@H@Z 100017cc f   DOT_LCD.obj
 0001:00000804       ?NumModes@Dot_lcd@@UAAHXZ  10001804 f   DOT_LCD.obj
 0001:0000080c       ?SetPointerShape@Dot_lcd@@UAAJPAVGPESurf@@0HHHH@Z 1000180c f   DOT_LCD.obj
 0001:00000814       ?MovePointer@Dot_lcd@@UAAJHH@Z 10001814 f   DOT_LCD.obj
 0001:00000858       ?WaitForNotBusy@Dot_lcd@@UAAXXZ 10001858 f   DOT_LCD.obj
 0001:0000085c       ?IsBusy@Dot_lcd@@UAAHXZ    1000185c f   DOT_LCD.obj
 0001:00000864       ?GetPhysicalVideoMemory@Dot_lcd@@UAAXPAK0@Z 10001864 f   DOT_LCD.obj
 0001:000008a8       ?AllocSurface@Dot_lcd@@UAAJPAPAVGPESurf@@HHW4EGPEFormat@@H@Z 100018a8 f   DOT_LCD.obj
 0001:00000934       ?WrappedEmulatedLine@Dot_lcd@@AAAJPAUGPELineParms@@@Z 10001934 f   DOT_LCD.obj
 0001:00000b20       ?Line@Dot_lcd@@UAAJPAUGPELineParms@@W4EGPEPhase@@@Z 10001b20 f   DOT_LCD.obj
 0001:00000b68       ?WrappedEmulatedBlt@Dot_lcd@@AAAJPAUGPEBltParms@@@Z 10001b68 f   DOT_LCD.obj
 0001:00000bd4       ?BltPrepare@Dot_lcd@@UAAJPAUGPEBltParms@@@Z 10001bd4 f   DOT_LCD.obj
 0001:00000c0c       ?BltComplete@Dot_lcd@@UAAJPAUGPEBltParms@@@Z 10001c0c f   DOT_LCD.obj
 0001:00000c14       ?InVBlank@Dot_lcd@@UAAHXZ  10001c14 f   DOT_LCD.obj
 0001:00000c1c       ?SetPalette@Dot_lcd@@UAAJPBUtagPALETTEENTRY@@GG@Z 10001c1c f   DOT_LCD.obj
 0001:00000c24       ?RegisterDDHALAPI@@YAXXZ   10001c24 f   DOT_LCD.obj
 0001:00000c28       DrvGetMasks                10001c28 f   DOT_LCD.obj
 0001:00000c34       GetGPE                     10001c34 f   DOT_LCD.obj
 0001:00000c74       ??_EDot_lcd@@UAAPAXI@Z     10001c74 f i DOT_LCD.obj
 0001:00000c74       ??_GDot_lcd@@UAAPAXI@Z     10001c74 f i DOT_LCD.obj
 0001:00000c9c       DispDrvrInitialize         10001c9c f   dispdrvr.obj
 0001:00000ca0       DispDrvrDirtyRectDump      10001ca0 f   dispdrvr.obj
 0001:00000ca4       DispDrvrSetDibBuffer       10001ca4 f   dispdrvr.obj
 0001:00000ca8       DispDrvrMoveCursor         10001ca8 f   dispdrvr.obj
 0001:00000cac       VirtualCopy                10001cac f   coredll:COREDLL.dll
 0001:00000cbc       VirtualAlloc               10001cbc f   coredll:COREDLL.dll
 0001:00000ccc       NKDbgPrintfW               10001ccc f   coredll:COREDLL.dll
 0001:00000cdc       DllMain                    10001cdc f   gperotate:ddi_if.obj
 0001:00000d18       ?SafeGetGPE@@YAPAVGPE@@PAX@Z 10001d18 f   gperotate:ddi_if.obj
 0001:00000d84       ?SetSurfaceFormat@@YAXPAVGPESurf@@PAU_XLATEOBJ@@K@Z 10001d84 f   gperotate:ddi_if.obj
 0001:00000f10       DrvContrastControl         10001f10 f   gperotate:ddi_if.obj
 0001:00000f34       DrvPowerHandler            10001f34 f   gperotate:ddi_if.obj
 0001:00000f5c       DrvEscape                  10001f5c f   gperotate:ddi_if.obj
 0001:000010a4       DrvDisableDriver           100020a4 f   gperotate:ddi_if.obj
 0001:000010d4       DrvDisablePDEV             100020d4 f   gperotate:ddi_if.obj
 0001:00001100       DrvDisableSurface          10002100 f   gperotate:ddi_if.obj
 0001:00001124       DrvEnableSurface           10002124 f   gperotate:ddi_if.obj
 0001:00001168       DrvCreateDeviceBitmap      10002168 f   gperotate:ddi_if.obj
 0001:00001204       DrvDeleteDeviceBitmap      10002204 f   gperotate:ddi_if.obj
 0001:00001244       DrvMovePointer             10002244 f   gperotate:ddi_if.obj
 0001:00001264       DrvSetPointerShape         10002264 f   gperotate:ddi_if.obj
 0001:00001378       DrvSetPalette              10002378 f   gperotate:ddi_if.obj
 0001:00001404       DrvFillPath                10002404 f   gperotate:ddi_if.obj
 0001:000017c0       DrvRealizeBrush            100027c0 f   gperotate:ddi_if.obj
 0001:00001a38       DrvGetModes                10002a38 f   gperotate:ddi_if.obj
 0001:00001b3c       DrvEnablePDEV              10002b3c f   gperotate:ddi_if.obj
 0001:00001e6c       DrvCopyBits                10002e6c f   gperotate:ddi_if.obj
 0001:00001e7c       ?ClipBlt@@YAJPAVGPE@@PAUGPEBltParms@@@Z 10002e7c f   gperotate:ddi_if.obj
 0001:000020e0       ?AAGetMaskBits@@YAXPAK00@Z 100030e0 f   gperotate:ddi_if.obj
 0001:00002120       ?GPEEnableDriver@@YAHKKPAUtagDrvEnableData@@PAU_ENGCALLBACKS@@@Z 10003120 f   gperotate:ddi_if.obj
 0001:00002254       AnyBlt                     10003254 f   gperotate:ddi_if.obj
 0001:00002a74       DrvAnyBlt                  10003a74 f   gperotate:ddi_if.obj
 0001:00002ae8       DrvTransparentBlt          10003ae8 f   gperotate:ddi_if.obj
 0001:00002b68       DrvBitBlt                  10003b68 f   gperotate:ddi_if.obj
 0001:00002c4c       DrvPaint                   10003c4c f   gperotate:ddi_if.obj
 0001:00002cbc       ??0GPE@@QAA@XZ             10003cbc f   gperotate:gpe.obj
 0001:00002d04       ??1GPE@@UAA@XZ             10003d04 f   gperotate:gpe.obj
 0001:00002d14       ?ContrastControl@GPE@@UAAHKPAK@Z 10003d14 f   gperotate:gpe.obj
 0001:00002d1c       ?PowerHandler@GPE@@UAAXH@Z 10003d1c f   gperotate:gpe.obj
 0001:00002d20       ?GetPalette@GPE@@UAAJPAPAUtagPALETTEENTRY@@PAG@Z 10003d20 f   gperotate:gpe.obj
 0001:00002d68       ?DrvEscape@GPE@@UAAKPAU_SURFOBJ@@KKPAXK1@Z 10003d68 f   gperotate:gpe.obj
 0001:00002d70       ?GetGraphicsCaps@GPE@@UAAKXZ 10003d70 f   gperotate:gpe.obj
 0001:00002d78       ?GetPhysicalVideoMemory@GPE@@UAAXPAK0@Z 10003d78 f   gperotate:gpe.obj
 0001:00002d7c       ?SetVisibleSurface@GPE@@UAAXPAVGPESurf@@@Z 10003d7c f   gperotate:gpe.obj
 0001:00002d80       ?FlipInProgress@GPE@@UAAHXZ 10003d80 f   gperotate:gpe.obj
 0001:00002d88       ?WaitForVBlank@GPE@@UAAXXZ 10003d88 f   gperotate:gpe.obj
 0001:00002d8c       ?SurfaceBusyFlipping@GPE@@UAAHPAVGPESurf@@@Z 10003d8c f   gperotate:gpe.obj
 0001:00002d94       ?IsBusy@GPE@@UAAHXZ        10003d94 f   gperotate:gpe.obj
 0001:00002d9c       ?WaitForNotBusy@GPE@@UAAXXZ 10003d9c f   gperotate:gpe.obj
 0001:00002da0       ?AvailableVideoMemory@GPE@@UAAKXZ 10003da0 f   gperotate:gpe.obj
 0001:00002da8       ?ScanLine@GPE@@UAAHXZ      10003da8 f   gperotate:gpe.obj
 0001:00002db0       ?ProcessCommandBlock@GPE@@UAAJPAE@Z 10003db0 f   gperotate:gpe.obj
 0001:00002dbc       ?GetScreenDimensions@GPE@@UAAHPAUGPEScreenProps@@@Z 10003dbc f   gperotate:gpe.obj
 0001:00003004       ?IsPaletteSettable@GPE@@UAAHXZ 10004004 f   gperotate:gpe.obj
 0001:0000301c       ?GetClearTypeRGBMasks@GPE@@UAAPAKXZ 1000401c f   gperotate:gpe.obj
 0001:0000302c       ?DisablePrimary@GPE@@UAAHXZ 1000402c f   gperotate:gpe.obj
 0001:00003068       ?Init@GPESurf@@QAAXHHPAXHW4EGPEFormat@@@Z 10004068 f   gperotate:gpe.obj
 0001:000030c0       ?RotateLineParms@GPESurf@@QAAXPAUGPELineParms@@@Z 100040c0 f   gperotate:gpe.obj
 0001:0000318c       ?SetRotation@GPESurf@@QAAXHHH@Z 1000418c f   gperotate:gpe.obj
 0001:000031b4       ?RotateRectl@GPESurf@@QAAXPAU_RECTL@@@Z 100041b4 f   gperotate:gpe.obj
 0001:00003264       ?RotateRectlBack@GPESurf@@QAAXPAU_RECTL@@@Z 10004264 f   gperotate:gpe.obj
 0001:0000331c       ?GetPtr@GPESurf@@QAAPAEHH@Z 1000431c f   gperotate:gpe.obj
 0001:000033f8       ??1GPEFormat@@QAA@XZ       100043f8 f   gperotate:gpe.obj
 0001:0000342c       ??_GGPE@@UAAPAXI@Z         1000442c f i gperotate:gpe.obj
 0001:0000342c       ??_EGPE@@UAAPAXI@Z         1000442c f i gperotate:gpe.obj
 0001:00003454       ??0GPESurf@@QAA@HHW4EGPEFormat@@@Z 10004454 f   gperotate:gpe.obj
 0001:00003544       ??1GPESurf@@UAA@XZ         10004544 f   gperotate:gpe.obj
 0001:00003580       ?EmulatedLine@GPE@@QAAJPAUGPELineParms@@@Z 10004580 f   gperotate:swline.obj
 0001:00003c30       ?EmulatedBlt_Internal@GPE@@QAAJPAUGPEBltParms@@@Z 10004c30 f   gperotate:swblt.obj
 0001:00005e48       ?EmulatedBlt_Bilinear@GPE@@QAAJPAUGPEBltParms@@@Z 10006e48 f   gperotate:swblt.obj
 0001:000066d8       ?EmulatedBlt_Halftone@GPE@@QAAJPAUGPEBltParms@@@Z 100076d8 f   gperotate:swblt.obj
 0001:00006f7c       ?EmulatedBltRotate_Internal@GPE@@QAAJPAUGPEBltParms@@@Z 10007f7c f   gperotate:swblt.obj
 0001:00009c54       ?EmulatedBltRotate_Bilinear@GPE@@QAAJPAUGPEBltParms@@@Z 1000ac54 f   gperotate:swblt.obj
 0001:0000ab10       ?EmulatedBltRotate_Halftone@GPE@@QAAJPAUGPEBltParms@@@Z 1000bb10 f   gperotate:swblt.obj
 0001:0000b800       ?SelectBlt@GPE@@IAAJPAUGPEBltParms@@P81@AAJ0@Z@Z 1000c800 f   gperotate:swblt.obj
 0001:0000bbe8       ?EmulatedBlt@GPE@@QAAJPAUGPEBltParms@@@Z 1000cbe8 f   gperotate:swblt.obj
 0001:0000bc00       ?Init@LRU@@QAAHG@Z         1000cc00 f   gperotate:swconvrt.obj
 0001:0000bccc       ?Find@LRU@@QAAFK@Z         1000cccc f   gperotate:swconvrt.obj
 0001:0000bda4       ?Add@LRU@@QAAFK@Z          1000cda4 f   gperotate:swconvrt.obj
 0001:0000be04       ?Free@LRU@@QAAXXZ          1000ce04 f   gperotate:swconvrt.obj
 0001:0000be60       ?InitMaskInfo@MaskInfo@@QAAXPAU_XLATEOBJ@@KG@Z 1000ce60 f   gperotate:swconvrt.obj
 0001:0000bf34       ?Init@MaskColorConverter@@QAAXPAU_XLATEOBJ@@@Z 1000cf34 f   gperotate:swconvrt.obj
 0001:0000bf68       ?Init@GroupColorConverter@@QAAXPAU_XLATEOBJ@@@Z 1000cf68 f   gperotate:swconvrt.obj
 0001:0000c19c       ?RGBToFromBGR@MaskColorConverter@@QAAKK@Z 1000d19c f   gperotate:swconvrt.obj
 0001:0000c1d4       ?MaskedSrcToRGB@MaskColorConverter@@QAAKK@Z 1000d1d4 f   gperotate:swconvrt.obj
 0001:0000c244       ?MaskedSrcToRGB@GroupColorConverter@@QAAKK@Z 1000d244 f   gperotate:swconvrt.obj
 0001:0000c2b4       ?MaskedSrcToBGR@MaskColorConverter@@QAAKK@Z 1000d2b4 f   gperotate:swconvrt.obj
 0001:0000c324       ?RGBSrcToMaskedDst@MaskColorConverter@@QAAKK@Z 1000d324 f   gperotate:swconvrt.obj
 0001:0000c368       ?BGRSrcToMaskedDst@MaskColorConverter@@QAAKK@Z 1000d368 f   gperotate:swconvrt.obj
 0001:0000c3ac       ?MaskedSrcToMaskedDst@MaskColorConverter@@QAAKK@Z 1000d3ac f   gperotate:swconvrt.obj
 0001:0000c42c       ?AnyToMono@MonoColorConverter@@QAAKK@Z 1000d42c f   gperotate:swconvrt.obj
 0001:0000c440       DrvRealizeColor            1000d440 f   gperotate:swconvrt.obj
 0001:0000c5b4       DrvUnrealizeColor          1000d5b4 f   gperotate:swconvrt.obj
 0001:0000c6c0       ?Init@LookupColorConverter@@QAAXPAU_XLATEOBJ@@@Z 1000d6c0 f   gperotate:swconvrt.obj
 0001:0000c8a4       ?MaskedSrcToPaletteDst@GroupColorConverter@@QAAKK@Z 1000d8a4 f   gperotate:swconvrt.obj
 0001:0000ca54       ?AllocConverters@@YAHXZ    1000da54 f   gperotate:swconvrt.obj
 0001:0000cb04       ?FreeConverters@@YAXXZ     1000db04 f   gperotate:swconvrt.obj
 0001:0000cb64       ?InitConverter@ColorConverter@@SAXPAU_XLATEOBJ@@PAPAV1@PAP81@AAKK@ZPAPAK@Z 1000db64 f   gperotate:swconvrt.obj
 0001:0000cdb4       ?SafeCallLine@@YAJPAVGPE@@PAUGPELineParms@@@Z 1000ddb4 f   gperotate:drvstrok.obj
 0001:0000ce04       DrvStrokePath              1000de04 f   gperotate:drvstrok.obj
 0001:0000d748       ?AATextBltInit@@YAHP6AXPAK00@Z@Z 1000e748 f   gperotate:aablt.obj
 0001:0000d760       ?AATextBltDst8@AATextBlt@@QAAJPAUGPEBltParms@@@Z 1000e760 f   gperotate:aablt.obj
 0001:0000d90c       ?SetGamma@AAMASKINFO@@QAAXM@Z 1000e90c f i gperotate:aablt.obj
 0001:0000db0c       ?BlendPixelAA@AAMASKINFO@@QAAKKE@Z 1000eb0c f   gperotate:aablt.obj
 0001:0000de78       ?SetAAGammaValue@@YAHKH@Z  1000ee78 f   gperotate:aablt.obj
 0001:0000df98       ?AATextBltDst16@AATextBlt@@QAAJPAUGPEBltParms@@@Z 1000ef98 f   gperotate:aablt.obj
 0001:0000e1c8       ?AATextBltDst24@AATextBlt@@QAAJPAUGPEBltParms@@@Z 1000f1c8 f   gperotate:aablt.obj
 0001:0000e418       ?AATextBltDst32@AATextBlt@@QAAJPAUGPEBltParms@@@Z 1000f418 f   gperotate:aablt.obj
 0001:0000e640       ?AATextBltSelect@@YAJPAUGPEBltParms@@@Z 1000f640 f   gperotate:aablt.obj
 0001:0000e790       ?vClearTypeLookupTableLoop@@YAXKPAU_BLENDINFO@@KK@Z 1000f790 f   gperotate:rctblt.obj
 0001:0000eb64       ?pvFillOpaqTableCT@@YAPAXKKKPAU_BLENDINFO@@@Z 1000fb64 f   gperotate:rctblt.obj
 0001:0000ebe0       ?ulBlendPixelCT@@YAKPAU_BLENDINFO@@KPAU_F_RGB@@@Z 1000fbe0 f   gperotate:rctblt.obj
 0001:0000ed1c       ?ulBlendPixelCT8bpp@@YAKPAU_BLENDINFO@@KPAU_F_RGB@@@Z 1000fd1c f   gperotate:rctblt.obj
 0001:0000edf8       ?ClearTypeBltDst16@ClearTypeBlt@@QAAJPAUGPEBltParms@@@Z 1000fdf8 f   gperotate:rctblt.obj
 0001:0000efd4       ?ClearTypeBltDst24@ClearTypeBlt@@QAAJPAUGPEBltParms@@@Z 1000ffd4 f   gperotate:rctblt.obj
 0001:0000f1c8       ?ClearTypeBltDst32@ClearTypeBlt@@QAAJPAUGPEBltParms@@@Z 100101c8 f   gperotate:rctblt.obj
 0001:0000f390       ?ClearTypeBltDst8@ClearTypeBlt@@QAAJPAUGPEBltParms@@@Z 10010390 f   gperotate:rctblt.obj
 0001:0000f55c       ?SetClearTypeBltMasks@@YAXKKK@Z 1001055c f   gperotate:rctblt.obj
 0001:0000f638       ?SetClearTypeBltGamma@@YAXK@Z 10010638 f   gperotate:rctblt.obj
 0001:0000f7f8       ?GetGammaValue@@YAHPAK@Z   100107f8 f   gperotate:rctblt.obj
 0001:0000f814       ?SetGammaValue@@YAHKH@Z    10010814 f   gperotate:rctblt.obj
 0001:0000f8d0       ?ClearTypeBltInit@@YAHPAUGPEMode@@PAKPAUtagPALETTEENTRY@@I@Z 100108d0 f   gperotate:rctblt.obj
 0001:0000fa20       ?ClearTypeBltSelect@@YAJPAUGPEBltParms@@@Z 10010a20 f   gperotate:rctblt.obj
 0001:0000fabc       ??0TmpGPESurf@@QAA@PAU_SURFOBJ@@0PAV0@@Z 10010abc f   gperotate:tmpgpesurf.obj
 0001:0000fb90       ??0EdgeList@@QAA@H@Z       10010b90 f   gperotate:swfill.obj
 0001:0000fbd8       ??1EdgeList@@QAA@XZ        10010bd8 f   gperotate:swfill.obj
 0001:0000fbf4       ?AddEdge@EdgeList@@QAAJJJJJ@Z 10010bf4 f   gperotate:swfill.obj
 0001:0000fe28       ?Fill@EdgeList@@QAAJPAUGPEBltParms@@PAU_RECTL@@PAVGPE@@@Z 10010e28 f   gperotate:swfill.obj
 0001:000102c8       ?drvRectFill32@@YAXPAVGPESurf@@PAU_DRVGRADIENTRECTDATA@@@Z 100112c8 f   gperotate:rdrvgradfill.obj
 0001:00010a08       ?drvRectFill24@@YAXPAVGPESurf@@PAU_DRVGRADIENTRECTDATA@@@Z 10011a08 f   gperotate:rdrvgradfill.obj
 0001:00011048       ?drvRectFill16@@YAXPAVGPESurf@@PAU_DRVGRADIENTRECTDATA@@H@Z 10012048 f   gperotate:rdrvgradfill.obj
 0001:00011540       ?drvRectFill16_565@@YAXPAVGPESurf@@PAU_DRVGRADIENTRECTDATA@@@Z 10012540 f   gperotate:rdrvgradfill.obj
 0001:00011554       ?drvRectFill16_555@@YAXPAVGPESurf@@PAU_DRVGRADIENTRECTDATA@@@Z 10012554 f   gperotate:rdrvgradfill.obj
 0001:000115ac       ?drvRectFill16Bitfields@@YAXPAVGPESurf@@PAU_DRVGRADIENTRECTDATA@@@Z 100125ac f   gperotate:rdrvgradfill.obj
 0001:000115c0       ?drvRectFillPalIndex@@YAXPAVGPESurf@@PAU_DRVGRADIENTRECTDATA@@H@Z 100125c0 f   gperotate:rdrvgradfill.obj
 0001:00011a98       ?drvRectFill8@@YAXPAVGPESurf@@PAU_DRVGRADIENTRECTDATA@@@Z 10012a98 f   gperotate:rdrvgradfill.obj
 0001:00011aac       ?drvRectFill4@@YAXPAVGPESurf@@PAU_DRVGRADIENTRECTDATA@@@Z 10012aac f   gperotate:rdrvgradfill.obj
 0001:00011ac0       ?drvRectFill1@@YAXPAVGPESurf@@PAU_DRVGRADIENTRECTDATA@@@Z 10012ac0 f   gperotate:rdrvgradfill.obj
 0001:000121b8       DrvGradientFill            100131b8 f   gperotate:rdrvgradfill.obj
 0001:00012a20       DrvAlphaBlend              10013a20 f   gperotate:drvalphablend.obj
 0001:00012aa8       GenBltInitialize           10013aa8 f   gperotate:genblt.obj
 0001:00012c60       ?ClockOverflow@@YAXXZ      10013c60 f   gperotate:genblt.obj
 0001:00012ca0       ?FunctionCacheLookup@@YAPAUGenBltFunction@@PAUGenBltSignature@@@Z 10013ca0 f   gperotate:genblt.obj
 0001:00012d0c       ?GetFnCacheMem@@YAPAUGenBltFunction@@PAUGenBltSignature@@@Z 10013d0c f   gperotate:genblt.obj
 0001:00012d8c       ?GetBltFunction@@YAPAUGenBltFunction@@PAUGenBltSignature@@@Z 10013d8c f   gperotate:genblt.obj
 0001:00012e40       ?GPEFormatToGenBltFormat@@YA?AW4GenBltFormat@@PAVGPEFormat@@W4EGPEFormat@@@Z 10013e40 f   gperotate:genblt.obj
 0001:00012fb8       GenBltSetMode              10013fb8 f   gperotate:genblt.obj
 0001:000131c4       ?GenerateSignature@@YAHPAUGPEBltParms@@PAUGenBltSignature@@@Z 100141c4 f   gperotate:genblt.obj
 0001:00013650       ?ProcessROP3@@YAKKKKEE@Z   10014650 f   gperotate:blthelpers.obj
 0001:00013710       ?RGBError@@YAKKK@Z         10014710 f   gperotate:blthelpers.obj
 0001:00013754       ?FillMasksAndShifts@@YAXPAVGPESurf@@PAK1@Z 10014754 f   gperotate:blthelpers.obj
 0001:000137c4       ?ClipRect@@YA_NPAU_RECTL@@PBU1@1@Z 100147c4 f   gperotate:blthelpers.obj
 0001:00013844       ?AveragePixels@@YAKKKHHPAK0@Z 10014844 f   gperotate:blthelpers.obj
 0001:000139a4       ?AverageAndClampPixels@@YAKKKHHPAK0@Z 100149a4 f   gperotate:blthelpers.obj
 0001:00013b48       ?HalftoneBlend16Bpp@@YAXPAEKHHPAK1@Z 10014b48 f   gperotate:blthelpers.obj
 0001:00013b80       ?HalftoneBlend24Bpp@@YAXPAEKHHPAK1@Z 10014b80 f   gperotate:blthelpers.obj
 0001:00013bd4       ?HalftoneBlend32Bpp@@YAXPAEKHHPAK1@Z 10014bd4 f   gperotate:blthelpers.obj
 0001:00013c08       ?InitPixelIterator@PixelIterator@@QAAXPAVGPESurf@@HHPAU_RECTL@@HH@Z 10014c08 f   gperotate:pixeliterator.obj
 0001:00013dd8       ?InitPixelIterator@PixelIteratorRotate@@QAAXPAVGPESurf@@HHPAU_RECTL@@HH@Z 10014dd8 f   gperotate:pixeliterator.obj
 0001:00013f38       ?GetPtr@PixelIteratorRotate@@QAAPAEXZ 10014f38 f   gperotate:pixeliterator.obj
 0001:00014024       ?InitBrushPixelIterator@BrushPixelIterator@@QAAXPAVGPESurf@@HHPAU_RECTL@@@Z 10015024 f   gperotate:pixeliterator.obj
 0001:00014110       ?WrappedGeneratedBlt@GPE@@QAAJPAUGPEBltParms@@@Z 10015110 f   gperotate:genbltgpe.obj
 0001:00014210       GeneratedBltSelect         10015210 f   gperotate:genbltgpe.obj
 0001:00014260       EmulatedBltSelect02        10015260 f   gperotate:ebbltsel.obj
 0001:00014268       EmulatedBltSelect08        10015268 f   gperotate:ebbltsel.obj
 0001:00014490       EmulatedBltSelect16        10015490 f   gperotate:ebbltsel.obj
 0001:00014664       ?IsSurface_R5_G6_B5@@YAHPAVGPESurf@@@Z 10015664 f i gperotate:fastblt.obj
 0001:000146bc       ?IsSurface_A8_R8_G8_B8@@YAHPAVGPESurf@@@Z 100156bc f i gperotate:fastblt.obj
 0001:00014720       ?CanUse_Blt_Stretch_Alpha_32To16at565@@YAHPAUGPEBltParms@@@Z 10015720 f i gperotate:fastblt.obj
 0001:0001481c       ?Blt_Stretch_Alpha_32To16at565@Emulator@@QAAJPAUGPEBltParms@@@Z 1001581c f   gperotate:fastblt.obj
 0001:00014fb8       ?CanUse_Blt_NoStretch_Alpha_32To16at565@@YAHPAUGPEBltParms@@@Z 10015fb8 f i gperotate:fastblt.obj
 0001:00014ff4       ?Blt_NoStretch_Alpha_32To16at565@Emulator@@QAAJPAUGPEBltParms@@@Z 10015ff4 f   gperotate:fastblt.obj
 0001:00015340       ?CanUse_Blt_NoStretch_Alpha_24To24@@YAHPAUGPEBltParms@@@Z 10016340 f i gperotate:fastblt.obj
 0001:000153d8       ?Blt_NoStretch_Alpha_24To24_Aligned@@YAJPAKH0HHHK@Z 100163d8 f   gperotate:fastblt.obj
 0001:0001551c       ?Blt_NoStretch_Alpha_24To24@Emulator@@QAAJPAUGPEBltParms@@@Z 1001651c f   gperotate:fastblt.obj
 0001:000156f4       ?CanUse_Blt_NoStretch_Alpha_16To16@@YAHPAUGPEBltParms@@@Z 100166f4 f i gperotate:fastblt.obj
 0001:0001579c       ?Blt_NoStretch_Alpha_16To16@Emulator@@QAAJPAUGPEBltParms@@@Z 1001679c f   gperotate:fastblt.obj
 0001:00015978       ?CanUse_Blt_NoStretch_Trans_16To16@@YAHPAUGPEBltParms@@@Z 10016978 f i gperotate:fastblt.obj
 0001:00015a14       ?Blt_NoStretch_Trans_16To16@Emulator@@QAAJPAUGPEBltParms@@@Z 10016a14 f   gperotate:fastblt.obj
 0001:00015adc       ?CanUse_Blt_Stretch_Trans_16To16@@YAHPAUGPEBltParms@@@Z 10016adc f i gperotate:fastblt.obj
 0001:00015b7c       ?CanUse_Blt_NoStretch_NoTrans_32To16at565@@YAHPAUGPEBltParms@@@Z 10016b7c f i gperotate:fastblt.obj
 0001:00015c14       ?Blt_NoStretch_NoTrans_32To16at565@Emulator@@QAAJPAUGPEBltParms@@@Z 10016c14 f   gperotate:fastblt.obj
 0001:00015ce0       ?CanUse_Blt_NoStretch_NoTrans_16at565To32@@YAHPAUGPEBltParms@@@Z 10016ce0 f i gperotate:fastblt.obj
 0001:00015d84       ?Blt_NoStretch_NoTrans_16at565To32@Emulator@@QAAJPAUGPEBltParms@@@Z 10016d84 f   gperotate:fastblt.obj
 0001:00015e4c       ?CanUse_Blt_NoStretch_NoTrans_24To24@@YAHPAUGPEBltParms@@@Z 10016e4c f i gperotate:fastblt.obj
 0001:00015ee4       ?Blt_NoStretch_NoTrans_24To24@Emulator@@QAAJPAUGPEBltParms@@@Z 10016ee4 f   gperotate:fastblt.obj
 0001:00015f9c       ?CanUse_Blt_NoStretch_NoTrans_16To16@@YAHPAUGPEBltParms@@@Z 10016f9c f i gperotate:fastblt.obj
 0001:00016034       ?Blt_NoStretch_NoTrans_16To16@Emulator@@QAAJPAUGPEBltParms@@@Z 10017034 f   gperotate:fastblt.obj
 0001:000160e8       ?CanUse_Blt_Text_32@@YAHPAUGPEBltParms@@@Z 100170e8 f i gperotate:fastblt.obj
 0001:00016174       ?Blt_Text_32@Emulator@@QAAJPAUGPEBltParms@@@Z 10017174 f   gperotate:fastblt.obj
 0001:0001626c       ?CanUse_Blt_Fill_32@@YAHPAUGPEBltParms@@@Z 1001726c f i gperotate:fastblt.obj
 0001:000162c8       ?Blt_Fill_32@Emulator@@QAAJPAUGPEBltParms@@@Z 100172c8 f   gperotate:fastblt.obj
 0001:00016360       ?CanUse_Blt_Fill_24@@YAHPAUGPEBltParms@@@Z 10017360 f i gperotate:fastblt.obj
 0001:000163bc       ?Blt_Fill_24@Emulator@@QAAJPAUGPEBltParms@@@Z 100173bc f   gperotate:fastblt.obj
 0001:00016474       ?Blt_Stretch_Trans_16To16@Emulator@@QAAJPAUGPEBltParms@@@Z 10017474 f   gperotate:fastblt.obj
 0001:00016b14       FastBltSelect              10017b14 f   gperotate:fastblt.obj
 0001:00016d00       GenBltCpuInitialize        10017d00 f   gperotate:genblt_arm.obj
 0001:00016d2c       ?RopRecurse@@YAFPAKF@Z     10017d2c f   gperotate:parse.obj
 0001:00016e4c       ?ConvertRecurse@@YAFPAKKF@Z 10017e4c f   gperotate:parse.obj
 0001:00017044       ?GenBltInvariantParser@@YA_NPAK0PAUGenBltSignature@@@Z 10018044 f   gperotate:parse.obj
 0001:00017330       ?InvariantRecurse@@YAFPAKKKHF@Z 10018330 f   gperotate:parse.obj
 0001:00017678       ?InvariantInitialize@@YAHPAK@Z 10018678 f   gperotate:parse.obj
 0001:000178b4       ?BRegFromBltSig@@YAKPAUGenBltSignature@@@Z 100188b4 f   gperotate:initregs.obj
 0001:00017a08       ?InitPCodeRegs@@YAXPAUGPEBltParms@@PAUPCodeRegisters_t@@@Z 10018a08 f   gperotate:initregs.obj
 0001:0001877c       ?EmulatedBltSrcCopy0108@Emulator@@QAAJPAUGPEBltParms@@@Z 1001977c f   gperotate:ebcp0108.obj
 0001:00018bf0       ?EmulatedBltSrcCopy0408@Emulator@@QAAJPAUGPEBltParms@@@Z 10019bf0 f   gperotate:ebcp0408.obj
 0001:00018d7c       ?EmulatedBltSrcCopy0808@Emulator@@QAAJPAUGPEBltParms@@@Z 10019d7c f   gperotate:ebcopy08.obj
 0001:000190fc       ?EmulatedBltSrcPaint0808@Emulator@@QAAJPAUGPEBltParms@@@Z 1001a0fc f   gperotate:ebspnt08.obj
 0001:000194fc       ?EmulatedBltPatternCopy08@Emulator@@QAAJPAUGPEBltParms@@@Z 1001a4fc f   gperotate:ebpcpy08.obj
 0001:000198d8       ?EmulatedBltAlphaText08@Emulator@@QAAJPAUGPEBltParms@@@Z 1001a8d8 f   gperotate:ebalph08.obj
 0001:000198f8       ?EmulatedBltText08@Emulator@@QAAJPAUGPEBltParms@@@Z 1001a8f8 f   gperotate:ebtext08.obj
 0001:00019a50       ?EmulatedBltFill08@Emulator@@QAAJPAUGPEBltParms@@@Z 1001aa50 f   gperotate:ebfill08.obj
 0001:00019ae4       ?EmulatedBltDstInvert08@Emulator@@QAAJPAUGPEBltParms@@@Z 1001aae4 f   gperotate:ebdinv08.obj
 0001:00019bec       ?EmulatedBltPatInvert08@Emulator@@QAAJPAUGPEBltParms@@@Z 1001abec f   gperotate:ebpinv08.obj
 0001:00019d14       ?EmulatedBltPatternInvert08@Emulator@@QAAJPAUGPEBltParms@@@Z 1001ad14 f   gperotate:ebp08.obj
 0001:00019f78       ?EmulatedBltSrcInvert0808@Emulator@@QAAJPAUGPEBltParms@@@Z 1001af78 f   gperotate:ebsinv08.obj
 0001:0001a378       ?EmulatedBltSrcAnd0808@Emulator@@QAAJPAUGPEBltParms@@@Z 1001b378 f   gperotate:ebsand08.obj
 0001:0001a778       ?EmulatedBltSrcPaint1616@Emulator@@QAAJPAUGPEBltParms@@@Z 1001b778 f   gperotate:ebspnt16.obj
 0001:0001ab78       ?EmulatedBltSrcCopy0116@Emulator@@QAAJPAUGPEBltParms@@@Z 1001bb78 f   gperotate:ebcp0116.obj
 0001:0001aff0       ?EmulatedBltSrcCopy0416@Emulator@@QAAJPAUGPEBltParms@@@Z 1001bff0 f   gperotate:ebcp0416.obj
 0001:0001b180       ?EmulatedBltSrcCopy1616@Emulator@@QAAJPAUGPEBltParms@@@Z 1001c180 f   gperotate:ebcopy16.obj
 0001:0001b528       ?EmulatedBltFill16@Emulator@@QAAJPAUGPEBltParms@@@Z 1001c528 f   gperotate:ebfill16.obj
 0001:0001b5e8       ?EmulatedBltSrcInvert1616@Emulator@@QAAJPAUGPEBltParms@@@Z 1001c5e8 f   gperotate:ebsinv16.obj
 0001:0001b9e8       ?EmulatedBltSrcAnd1616@Emulator@@QAAJPAUGPEBltParms@@@Z 1001c9e8 f   gperotate:ebsand16.obj
 0001:0001bde8       ?EmulatedBltAlphaText16@Emulator@@QAAJPAUGPEBltParms@@@Z 1001cde8 f   gperotate:ebalph16.obj
 0001:0001be08       ?EmulatedBltText16@Emulator@@QAAJPAUGPEBltParms@@@Z 1001ce08 f   gperotate:ebtext16.obj
 0001:0001c064       _DllMainCRTStartup         1001d064 f   corelib0:pegdmain.obj
 0001:0001c15c       _cexit                     1001d15c f   corelib0:cexit.obj
 0001:0001c178       _initterm                  1001d178 f   corelib0:crt0dat.obj
 0001:0001c1ac       _cinit                     1001d1ac f   corelib0:crt0dat.obj
 0001:0001c1e0       __security_init_cookie     1001d1e0 f   corelib0:seccinit.obj
 0001:0001c23c       ??3@YAXPAX@Z               1001d23c f   corelib1:COREDLL.dll
 0001:0001c24c       ??2@YAPAXI@Z               1001d24c f   corelib1:COREDLL.dll
 0001:0001c25c       memcpy                     1001d25c f   corelib1:COREDLL.dll
 0001:0001c26c       __rt_udiv                  1001d26c f   corelib1:COREDLL.dll
 0001:0001c27c       __C_specific_handler       1001d27c f   corelib1:COREDLL.dll
 0001:0001c28c       memset                     1001d28c f   corelib1:COREDLL.dll
 0001:0001c29c       _purecall                  1001d29c f   corelib1:COREDLL.dll
 0001:0001c2ac       malloc                     1001d2ac f   corelib1:COREDLL.dll
 0001:0001c2bc       free                       1001d2bc f   corelib1:COREDLL.dll
 0001:0001c2cc       memmove                    1001d2cc f   corelib1:COREDLL.dll
 0001:0001c2dc       _XcptFilter                1001d2dc f   corelib1:COREDLL.dll
 0001:0001c2ec       __security_gen_cookie2     1001d2ec f   corelib1:COREDLL.dll
 0001:0001c2fc       DisableThreadLibraryCalls  1001d2fc f   coredll:COREDLL.dll
 0001:0001c30c       SetLastError               1001d30c f   coredll:COREDLL.dll
 0001:0001c31c       RegCloseKey                1001d31c f   coredll:COREDLL.dll
 0001:0001c32c       RegQueryValueExW           1001d32c f   coredll:COREDLL.dll
 0001:0001c33c       RegOpenKeyExW              1001d33c f   coredll:COREDLL.dll
 0001:0001c34c       RegSetValueExW             1001d34c f   coredll:COREDLL.dll
 0001:0001c35c       RegCreateKeyExW            1001d35c f   coredll:COREDLL.dll
 0001:0001c36c       LocalAlloc                 1001d36c f   coredll:COREDLL.dll
 0001:0001c37c       LocalFree                  1001d37c f   coredll:COREDLL.dll
 0001:0001c38c       LocalReAlloc               1001d38c f   coredll:COREDLL.dll
 0001:0001c39c       VirtualFree                1001d39c f   coredll:COREDLL.dll
 0001:0001c3ac       CeSetExtendedPdata         1001d3ac f   coredll:COREDLL.dll
 0001:0001c3bc       CacheRangeFlush            1001d3bc f   coredll:COREDLL.dll
 0001:0001c3cc       TerminateProcess           1001d3cc f   coredll:COREDLL.dll
 0001:0001c480       __IMPORT_DESCRIPTOR_COREDLL 1001d480     coredll:COREDLL.dll
 0001:0001c494       __NULL_IMPORT_DESCRIPTOR   1001d494     coredll:COREDLL.dll
 0002:00000000       __imp_VirtualCopy          1001e000     coredll:COREDLL.dll
 0002:00000004       __imp_VirtualAlloc         1001e004     coredll:COREDLL.dll
 0002:00000008       __imp_NKDbgPrintfW         1001e008     coredll:COREDLL.dll
 0002:0000000c       __imp_??3@YAXPAX@Z         1001e00c     corelib1:COREDLL.dll
 0002:00000010       __imp_??2@YAPAXI@Z         1001e010     corelib1:COREDLL.dll
 0002:00000014       __imp_memcpy               1001e014     corelib1:COREDLL.dll
 0002:00000018       __imp___rt_udiv            1001e018     corelib1:COREDLL.dll
 0002:0000001c       __imp___C_specific_handler 1001e01c     corelib1:COREDLL.dll
 0002:00000020       __imp_memset               1001e020     corelib1:COREDLL.dll
 0002:00000024       __imp__purecall            1001e024     corelib1:COREDLL.dll
 0002:00000028       __imp___rt_sdiv            1001e028     corelib1:COREDLL.dll
 0002:0000002c       __imp_malloc               1001e02c     corelib1:COREDLL.dll
 0002:00000030       __imp_free                 1001e030     corelib1:COREDLL.dll
 0002:00000034       __imp___divs               1001e034     corelib1:COREDLL.dll
 0002:00000038       __imp___itos               1001e038     corelib1:COREDLL.dll
 0002:0000003c       __imp___adds               1001e03c     corelib1:COREDLL.dll
 0002:00000040       __imp___stod               1001e040     corelib1:COREDLL.dll
 0002:00000044       __imp_pow                  1001e044     corelib1:COREDLL.dll
 0002:00000048       __imp___dtos               1001e048     corelib1:COREDLL.dll
 0002:0000004c       __imp___muls               1001e04c     corelib1:COREDLL.dll
 0002:00000050       __imp___subs               1001e050     corelib1:COREDLL.dll
 0002:00000054       __imp___stou               1001e054     corelib1:COREDLL.dll
 0002:00000058       __imp___utos               1001e058     corelib1:COREDLL.dll
 0002:0000005c       __imp___rt_sdiv64by64      1001e05c     corelib1:COREDLL.dll
 0002:00000060       __imp_memmove              1001e060     corelib1:COREDLL.dll
 0002:00000064       __imp__XcptFilter          1001e064     corelib1:COREDLL.dll
 0002:00000068       __imp___security_gen_cookie2 1001e068     corelib1:COREDLL.dll
 0002:0000006c       __imp_DisableThreadLibraryCalls 1001e06c     coredll:COREDLL.dll
 0002:00000070       __imp_SetLastError         1001e070     coredll:COREDLL.dll
 0002:00000074       __imp_RegCloseKey          1001e074     coredll:COREDLL.dll
 0002:00000078       __imp_RegQueryValueExW     1001e078     coredll:COREDLL.dll
 0002:0000007c       __imp_RegOpenKeyExW        1001e07c     coredll:COREDLL.dll
 0002:00000080       __imp_RegSetValueExW       1001e080     coredll:COREDLL.dll
 0002:00000084       __imp_RegCreateKeyExW      1001e084     coredll:COREDLL.dll
 0002:00000088       __imp_LocalAlloc           1001e088     coredll:COREDLL.dll
 0002:0000008c       __imp_LocalFree            1001e08c     coredll:COREDLL.dll
 0002:00000090       __imp_LocalReAlloc         1001e090     coredll:COREDLL.dll
 0002:00000094       __imp_VirtualFree          1001e094     coredll:COREDLL.dll
 0002:00000098       __imp_CeSetExtendedPdata   1001e098     coredll:COREDLL.dll
 0002:0000009c       __imp_CacheRangeFlush      1001e09c     coredll:COREDLL.dll
 0002:000000a0       __imp_TerminateProcess     1001e0a0     coredll:COREDLL.dll
 0002:000000a4       \177COREDLL_NULL_THUNK_DATA 1001e0a4     coredll:COREDLL.dll
 0002:000000a8       ?_rgb2bpp@@3PAUtagRGBQUAD@@A 1001e0a8     DOT_LCD.obj
 0002:000000b8       ?BitMasks@@3PAKA           1001e0b8     DOT_LCD.obj
 0002:000000c4       DispDrvr_cxScreen          1001e0c4     dispdrvr.obj
 0002:000000c8       DispDrvr_cyScreen          1001e0c8     dispdrvr.obj
 0002:000000cc       DispDrvr_HORZSIZE          1001e0cc     dispdrvr.obj
 0002:000000d0       DispDrvr_VERTSIZE          1001e0d0     dispdrvr.obj
 0002:000000d4       DispDrvr_LOGPIXELSX        1001e0d4     dispdrvr.obj
 0002:000000d8       DispDrvr_LOGPIXELSY        1001e0d8     dispdrvr.obj
 0002:000000dc       DispDrvr_cdwStride         1001e0dc     dispdrvr.obj
 0002:00000100       ?gaMix@@3PAEA              1001e100     gperotate:ddi_if.obj
 0002:00000548       ?gulGamma@@3KA             1001e548     gperotate:rctblt.obj
 0002:0000054c       ?szGamma@@3PAGA            1001e54c     gperotate:rctblt.obj
 0002:00000570       ?szGammaValue@@3PAGA       1001e570     gperotate:rctblt.obj
 0002:00000588       ?alAlpha@@3PAJA            1001e588     gperotate:rctblt.obj
 0002:000005a8       ?ajGammaCT_10@@3PAEA       1001e5a8     gperotate:rctblt.obj
 0002:000006a8       ?ajGammaCT_11@@3PAEA       1001e6a8     gperotate:rctblt.obj
 0002:000007a8       ?ajGammaInvCT_11@@3PAEA    1001e7a8     gperotate:rctblt.obj
 0002:000008a8       ?ajGammaCT_12@@3PAEA       1001e8a8     gperotate:rctblt.obj
 0002:000009a8       ?ajGammaInvCT_12@@3PAEA    1001e9a8     gperotate:rctblt.obj
 0002:00000aa8       ?ajGammaCT_13@@3PAEA       1001eaa8     gperotate:rctblt.obj
 0002:00000ba8       ?ajGammaInvCT_13@@3PAEA    1001eba8     gperotate:rctblt.obj
 0002:00000ca8       ?ajGammaCT_14@@3PAEA       1001eca8     gperotate:rctblt.obj
 0002:00000da8       ?ajGammaInvCT_14@@3PAEA    1001eda8     gperotate:rctblt.obj
 0002:00000ea8       ?ajGammaCT_15@@3PAEA       1001eea8     gperotate:rctblt.obj
 0002:00000fa8       ?ajGammaInvCT_15@@3PAEA    1001efa8     gperotate:rctblt.obj
 0002:000010a8       ?ajGammaCT_16@@3PAEA       1001f0a8     gperotate:rctblt.obj
 0002:000011a8       ?ajGammaInvCT_16@@3PAEA    1001f1a8     gperotate:rctblt.obj
 0002:000012a8       ?ajGammaCT_17@@3PAEA       1001f2a8     gperotate:rctblt.obj
 0002:000013a8       ?ajGammaInvCT_17@@3PAEA    1001f3a8     gperotate:rctblt.obj
 0002:000014a8       ?ajGammaCT_18@@3PAEA       1001f4a8     gperotate:rctblt.obj
 0002:000015a8       ?ajGammaInvCT_18@@3PAEA    1001f5a8     gperotate:rctblt.obj
 0002:000016a8       ?ajGammaCT_19@@3PAEA       1001f6a8     gperotate:rctblt.obj
 0002:000017a8       ?ajGammaInvCT_19@@3PAEA    1001f7a8     gperotate:rctblt.obj
 0002:000018a8       ?ajGammaCT_20@@3PAEA       1001f8a8     gperotate:rctblt.obj
 0002:000019a8       ?ajGammaInvCT_20@@3PAEA    1001f9a8     gperotate:rctblt.obj
 0002:00001aa8       ?ajGammaCT_21@@3PAEA       1001faa8     gperotate:rctblt.obj
 0002:00001ba8       ?ajGammaInvCT_21@@3PAEA    1001fba8     gperotate:rctblt.obj
 0002:00001ca8       ?ajGammaCT_22@@3PAEA       1001fca8     gperotate:rctblt.obj
 0002:00001da8       ?ajGammaInvCT_22@@3PAEA    1001fda8     gperotate:rctblt.obj
 0002:00001ea8       ?gaOutTable@@3PAU_F_RGB@@A 1001fea8     gperotate:rctblt.obj
 0002:00002078       ?pfnDrvGradientFill@@3P6AHPAU_SURFOBJ@@PAU_CLIPOBJ@@PAU_XLATEOBJ@@PAU_TRIVERTEX@@KPAXKPAU_RECTL@@PAU_POINTL@@K@ZA 10020078     gperotate:rdrvgradfill.obj
 0002:00002080       ?gulDither32@@3PAKA        10020080     gperotate:rdrvgradfill.obj
 0002:000020c0       ?gDitherMatrix16x16Halftone@@3PAEA 100200c0     gperotate:rdrvgradfill.obj
 0002:000021c0       ?gDitherMatrix16x16Default@@3PAEA 100201c0     gperotate:rdrvgradfill.obj
 0002:000022c0       ?vTranslateIdentity@@3PAEA 100202c0     gperotate:rdrvgradfill.obj
 0002:000023c0       ?DefaultSaturationTable@@3PAEA 100203c0     gperotate:rdrvgradfill.obj
 0002:00002540       ?Saturation16_5@@3PAEA     10020540     gperotate:rdrvgradfill.obj
 0002:00002580       ?Saturation16_6@@3PAEA     10020580     gperotate:rdrvgradfill.obj
 0002:00002600       ?pfnDrvAlphaBlend@@3P6AHPAU_SURFOBJ@@0PAU_CLIPOBJ@@PAU_XLATEOBJ@@PAU_RECTL@@3PAUtagBLENDOBJ@@@ZA 10020600     gperotate:drvalphablend.obj
 0002:00002608       ?g_pdwAnyBltPCode@@3PAKA   10020608     gperotate:genblt.obj
 0002:0000b85c       __security_cookie          1002985c     corelib0:seccinit.obj
 0002:0000b860       __security_cookie_complement 10029860     corelib0:seccinit.obj
 0002:0000b86c       DispDrvrPhysicalFrameBuffer 1002986c     dispdrvr.obj
 0002:0000b870       PATHOBJ_vGetBounds         10029870     gperotate:ddi_if.obj
 0002:0000b874       PATHOBJ_bEnum              10029874     gperotate:ddi_if.obj
 0002:0000b878       PALOBJ_cGetColors          10029878     gperotate:ddi_if.obj
 0002:0000b87c       CLIPOBJ_bEnum              1002987c     gperotate:ddi_if.obj
 0002:0000b880       EngGetPaletteFromPool      10029880     gperotate:ddi_if.obj
 0002:0000b884       EngAddPaletteToPool        10029884     gperotate:ddi_if.obj
 0002:0000b888       BRUSHOBJ_pvAllocRbrush     10029888     gperotate:ddi_if.obj
 0002:0000b88c       BRUSHOBJ_pvGetRbrush       1002988c     gperotate:ddi_if.obj
 0002:0000b890       CLIPOBJ_cEnumStart         10029890     gperotate:ddi_if.obj
 0002:0000b894       XLATEOBJ_cGetPalette       10029894     gperotate:ddi_if.obj
 0002:0000b898       PATHOBJ_vEnumStart         10029898     gperotate:ddi_if.obj
 0002:0000b89c       EngCreatePalette           1002989c     gperotate:ddi_if.obj
 0002:0000b8a0       EngCreateDeviceSurface     100298a0     gperotate:ddi_if.obj
 0002:0000b8a4       EngDeleteSurface           100298a4     gperotate:ddi_if.obj
 0002:0000b8a8       EngCreateDeviceBitmap      100298a8     gperotate:ddi_if.obj
 0002:0000b8ac       EngReleasePooledPalette    100298ac     gperotate:ddi_if.obj
 0002:0000b8b0       pfnGetGPEPerCard           100298b0     gperotate:ddi_if.obj
 0002:0000b8b4       g_hmodDisplayDll           100298b4     gperotate:ddi_if.obj
 0002:0000b8b8       ?g_pxlo@@3PAU_XLATEOBJ@@A  100298b8     gperotate:ddi_if.obj
 0002:0000b8c8       ?gMaskedConverter@@3PAVMaskColorConverter@@A 100298c8     gperotate:swconvrt.obj
 0002:0000ba58       ?gLookupConverter@@3PAVLookupColorConverter@@A 10029a58     gperotate:swconvrt.obj
 0002:0000caa8       ?gMonoConverter@@3PAVMonoColorConverter@@A 1002aaa8     gperotate:swconvrt.obj
 0002:0000cad0       ?gMaskedLRU@@3VLRU@@A      1002aad0     gperotate:swconvrt.obj
 0002:0000cae4       ?gLookupLRU@@3VLRU@@A      1002aae4     gperotate:swconvrt.obj
 0002:0000caf8       ?gMonoLRU@@3VLRU@@A        1002aaf8     gperotate:swconvrt.obj
 0002:0000cb0c       ?gGroupLRU@@3VLRU@@A       1002ab0c     gperotate:swconvrt.obj
 0002:0000cb20       ?gGroupConverter@@3PAVGroupColorConverter@@A 1002ab20     gperotate:swconvrt.obj
 0002:0000d990       ?pfnGetAAMaskBits@@3P6AXPAK00@ZA 1002b990     gperotate:aablt.obj
 0002:0000d998       ?uBCacheCT@@3KA            1002b998     gperotate:rctblt.obj
 0002:0000d99c       ?uFCacheCT@@3KA            1002b99c     gperotate:rctblt.obj
 0002:0000d9a0       ?aulCacheCT@@3PAKA         1002b9a0     gperotate:rctblt.obj
 0002:0000db6c       ?sizeCacheCT@@3KA          1002bb6c     gperotate:rctblt.obj
 0002:0000db70       ?uGammaCacheCT@@3KA        1002bb70     gperotate:rctblt.obj
 0002:0000dbac       ?gbHateMmx@@3HA            1002bbac     gperotate:rctblt.obj
 0002:0000de38       ?g_BltFnPData@@3U_xpdata@@A 1002be38     gperotate:genblt.obj
 0002:0000dec0       ?g_CpuFuncs@@3UGenBltCpuFuncs@@A 1002bec0     gperotate:genblt.obj
 0002:0000dedc       ?g_pPCodeRegisters@@3PAUPCodeRegisters_t@@A 1002bedc     gperotate:genblt.obj
 0002:0000dee0       ?g_BltClock@@3KA           1002bee0     gperotate:genblt.obj
 0002:0000dee4       ?g_fUseFastBlt@@3HA        1002bee4     gperotate:fastblt.obj
 0002:0000f700       _exitflag                  1002d700     corelib0:cexit.obj
 0002:0000f704       __onexitend                1002d704     <common>
 0002:0000f708       __onexitbegin              1002d708     <common>
 0002:0000f70c       _pRawDllMain               1002d70c     <common>

 entry point at        0001:0001c064

 Static symbols

 0001:0000dc24       ?GetAAMaskInfo@@YAXH@Z     1000ec24 f   gperotate:aablt.obj
 0001:0000dd84       ?InitGamma@@YAXXZ          1000ed84 f   gperotate:aablt.obj
 0001:0000e6f4       ?GetNearestIndex@@YAKK@Z   1000f6f4 f   gperotate:rctblt.obj
 0001:0001020c       ?MDiv64@@YA_J_J00@Z        1001120c f   gperotate:rdrvgradfill.obj
 0001:00011fac       ?RectFillBlt@@YAHPAU_SURFOBJ@@PAU_DRVGRADIENTRECTDATA@@P6AXPAVGPESurf@@1@Z@Z 10012fac f   gperotate:rdrvgradfill.obj
 0001:00012178       ?GFGetShift@@YAXKPAK0@Z    10013178 f   gperotate:rdrvgradfill.obj
 0001:0001bf68       _DllMainCRTStartupHelper   1001cf68 f   corelib0:pegdmain.obj
 0001:0001c094       doexit                     1001d094 f   corelib0:cexit.obj
 0001:0001c3dc       ??__EgGroupConverter@@YAXXZ 1001d3dc f   gperotate:swconvrt.obj
