 kitl

 Timestamp is 4f86751a (Thu Apr 12 14:24:26 2012)

 Preferred load address is 10000000

 Start         Length     Name                   Class
 0001:00000000 00004a70H .rdata                  CODE
 0001:00004a70 00000021H .rdata$debug            CODE
 0001:00004a94 00012784H .text                   CODE
 0001:00017218 00000058H .xdata                  CODE
 0001:00017270 00000031H .edata                  CODE
 0002:00000000 00005a5cH .data                   DATA
 0002:00005a60 00049c14H .bss                    DATA
 0003:00000000 000009f0H .pdata                  DATA

  Address         Publics by Value              Rva+Base       Lib:Object

 0000:00000000       ___safe_se_handler_count   00000000     <absolute>
 0000:00000000       ___safe_se_handler_table   00000000     <absolute>
 0001:0000001c       ??_C@_19EDALIIJI@?$AAE?$AAN?$AAE?$AAT?$AA?$AA@ 1000101c     kitl.obj
 0001:00000028       ??_C@_1BG@JBMELNEE@?$AAU?$AAS?$AAB?$AA_?$AAS?$AAE?$AAR?$AAI?$AAA?$AAL?$AA?$AA@ 10001028     kitl.obj
 0001:00000040       ??_C@_1BG@GIAHOCLI@?$AAU?$AAS?$AAB?$AA_?$AAR?$AAN?$AAD?$AAI?$AAS?$AA?5?$AA?$AA@ 10001040     kitl.obj
 0001:000000e8       ??_C@_0BL@HDGIOPOJ@?9OEMKitlStartup?$CIrc?5?$DN?5?$CFd?$CJ?$AN?6?$AA@ 100010e8     kitl.obj
 0001:00000104       ??_C@_04KHHHDOFC@MX28?$AA@ 10001104     kitl.obj
 0001:0000010c       ??_C@_0CP@HIPALHGN@WARN?3?5Boot?5arguments?5not?5found?0?5@ 1000110c     kitl.obj
 0001:00000140       ??_C@_1FI@FDCAIHJP@?$AAE?$AAR?$AAR?$AAO?$AAR?$AA?3?$AA?5?$AAI?$AAn?$AAi?$AAt?$AAR?$AAT?$AAC?$AA?3?$AA?5?$AAp?$AAv?$AA_?$AAH?$AAW?$AAr?$AAe?$AAg?$AAR?$AAT?$AAC?$AA?5?$AAn?$AAu?$AAl?$AAl@ 10001140     kitl.obj
 0001:00000198       ??_C@_0BC@JLFFBIBG@?$CLOEMKitlStartup?$AN?6?$AA@ 10001198     kitl.obj
 0001:000001b0       ??_C@_1FI@NLBDMCDE@?$AAE?$AAR?$AAR?$AAO?$AAR?$AA?3?$AA?$CI?$AAO?$AAE?$AAM?$AAK?$AAi?$AAt?$AAl?$AAS?$AAt?$AAa?$AAr?$AAt?$AAu?$AAp?$AA?$CJ?$AAA?$AAp?$AAb?$AAh?$AAD?$AAm?$AAa?$AAI?$AAn?$AAi@ 100011b0     kitl.obj
 0001:00000208       ??_C@_1FG@JDBFEJHL@?$AAE?$AAR?$AAR?$AAO?$AAR?$AA?3?$AA?$CI?$AAO?$AAE?$AAM?$AAK?$AAi?$AAt?$AAl?$AAS?$AAt?$AAa?$AAr?$AAt?$AAu?$AAp?$AA?$CJ?$AAI?$AAo?$AAm?$AAu?$AAx?$AAA?$AAl?$AAl?$AAo?$AAc@ 10001208     kitl.obj
 0001:00000260       ??_C@_1FK@IEOLMMDE@?$AAE?$AAR?$AAR?$AAO?$AAR?$AA?3?$AA?$CI?$AAO?$AAE?$AAM?$AAK?$AAi?$AAt?$AAl?$AAS?$AAt?$AAa?$AAr?$AAt?$AAu?$AAp?$AA?$CJ?$AAA?$AAp?$AAb?$AAh?$AAD?$AAm?$AAa?$AAA?$AAl?$AAl@ 10001260     kitl.obj
 0001:000002c0       ??_C@_1FG@IJOBEAAF@?$AAE?$AAR?$AAR?$AAO?$AAR?$AA?3?$AA?$CI?$AAO?$AAE?$AAM?$AAK?$AAi?$AAt?$AAl?$AAS?$AAt?$AAa?$AAr?$AAt?$AAu?$AAp?$AA?$CJ?$AAC?$AAl?$AAo?$AAc?$AAk?$AAA?$AAl?$AAl?$AAo?$AAc@ 100012c0     kitl.obj
 0001:00000318       ??_C@_0CA@NGKEKANM@Closing?5Handle?5of?5Timer?5Thread?6?$AA@ 10001318     kitlcore:ethdbg.obj
 0001:00000338       ??_C@_0BN@FPKBKHBK@Error?5creating?5timer?5thread?6?$AA@ 10001338     kitlcore:ethdbg.obj
 0001:00000358       ??_C@_0CF@GGNNPHKD@Connecting?5to?5Desktop?5?4?4?5resendi@ 10001358     kitlcore:ethdbg.obj
 0001:00000380       ??_C@_0BI@OFAMBHJH@Connecting?5to?5Desktop?$AN?6?$AA@ 10001380     kitlcore:ethdbg.obj
 0001:00000398       ??_C@_0EO@CEOOKDBM@?$CBKITL?5Interrupt?5thread?5got?5error@ 10001398     kitlcore:ethdbg.obj
 0001:000003e8       ??_C@_0CB@PCGPHMPD@KITL?5InterruptInitialize?5failed?6@ 100013e8     kitlcore:ethdbg.obj
 0001:0000040c       ??_C@_0BK@HDMNDFBA@KITL?5CreateEvent?5failed?$CB?6?$AA@ 1000140c     kitlcore:ethdbg.obj
 0001:00000428       ??_C@_1BK@PPDMEPMD@?$AAE?$AAd?$AAb?$AAg?$AAI?$AAn?$AAt?$AAE?$AAv?$AAe?$AAn?$AAt?$AA?$AA@ 10001428     kitlcore:ethdbg.obj
 0001:00000444       ??_C@_0CK@GNMBECNI@?$CBDoRegisterClient?$CI?$CFs?$CJ?3?5Invalid?5p@ 10001444     kitlcore:ethdbg.obj
 0001:00000470       ??_C@_04HIBGFPH@NULL?$AA@  10001470     kitlcore:ethdbg.obj
 0001:00000478       ??_C@_0CP@LFECMIMJ@?$CBDoRegisterClient?$CI?$CFs?$CJ?3?5Invalid?5w@ 10001478     kitlcore:ethdbg.obj
 0001:000004a8       ??_C@_0DN@GDEGDLCL@?$CBKITLRegisterClient?$CI?$CFs?$CJ?3?5Client?5@ 100014a8     kitlcore:ethdbg.obj
 0001:000004e8       ??_C@_0DG@FHPIAJCD@?$CBKITLRegisterClient?$CI?$CFs?$CJ?3?5No?5avai@ 100014e8     kitlcore:ethdbg.obj
 0001:00000520       ??_C@_0DO@NHOEDOMO@?$CBDoRegisterClient?$CI?$CFs?$CJ?3?5Need?5to?5s@ 10001520     kitlcore:ethdbg.obj
 0001:00000560       ??_C@_0CB@GFDDAGEF@Error?5creating?5interrupt?5thread?6@ 10001560     kitlcore:ethdbg.obj
 0001:00000584       ??_C@_0CE@FKCJJLLC@KITL?3?5Leaving?5polling?5mode?4?4?4?50x@ 10001584     kitlcore:ethdbg.obj
 0001:000005a8       ??_C@_0DC@LLJMBDFH@?$CBKITLRegisterDfltClient?3?5Fail?5to@ 100015a8     kitlcore:ethdbg.obj
 0001:000005dc       ??_C@_0DH@MFOCECCL@?$AN?6?$CBUnable?5to?5establish?5KITL?5conn@ 100015dc     kitlcore:ethdbg.obj
 0001:00000614       ??_C@_0DN@NDJFLFHF@?$AN?6?$CBKitl?5buffer?5specified?5by?5OAL?5@ 10001614     kitlcore:ethdbg.obj
 0001:00000654       ??_C@_06MCCIJHBO@DBGMSG?$AA@ 10001654     kitlcore:ethdbg.obj
 0001:0000065c       ??_C@_04JMJJJNGP@PPSH?$AA@ 1000165c     kitlcore:ethdbg.obj
 0001:00000664       ??_C@_04MOKOCOLM@KDBG?$AA@ 10001664     kitlcore:ethdbg.obj
 0001:0000066c       ??_C@_0CE@HDEHCBNJ@KITL?5Error?5allocating?5timer?5memo@ 1000166c     kitlcore:timer.obj
 0001:00000690       ??_C@_0DM@HHCOAHOB@?$CBKitlSendFrame?3?5transport?5failed@ 10001690     kitlcore:edbgprot.obj
 0001:000006cc       ??_C@_0CF@ELFKFCIB@?$CBSendConfig?3?5Error?5in?5KitlSendFr@ 100016cc     kitlcore:edbgprot.obj
 0001:000006f4       ??_C@_0BO@OHFCENNA@?$CBSendConfig?3?5Stack?5overflow?$AN?6?$AA@ 100016f4     kitlcore:edbgprot.obj
 0001:00000714       ??_C@_0CM@CLKKFLBC@?$CBRetransmitFrame?3?5Error?5in?5KitlS@ 10001714     kitlcore:edbgprot.obj
 0001:00000740       ??_C@_0CH@PDOCBOKH@?$CBKITL?3?5Error?5in?5KitlSendFrame?5fo@ 10001740     kitlcore:edbgprot.obj
 0001:00000768       ??_C@_0BP@EJOKEGGJ@?$CBSendAckNack?3?5Stack?5overflow?$AN?6?$AA@ 10001768     kitlcore:edbgprot.obj
 0001:00000788       ??_C@_0BJ@HLKLCDLN@KITL?3?5Got?5RESET?5command?6?$AA@ 10001788     kitlcore:edbgprot.obj
 0001:000007a4       ??_C@_0DH@FAHMLBID@KITL?3?5IOCTL_HAL_REBOOT?5not?5suppo@ 100017a4     kitlcore:edbgprot.obj
 0001:000007dc       ??_C@_0CM@CCHLHCID@?$CBHost?5config?5message?5size?5mismat@ 100017dc     kitlcore:edbgprot.obj
 0001:00000808       ??_C@_0CB@MCDILJMK@?$CBKITLPollData?3?5STACK?5OVERFLOW?$CB?$AN?6@ 10001808     kitlcore:edbgprot.obj
 0001:0000082c       ??_C@_0DA@KOJGDENJ@?$CBExchangeConfig?3?5WaitForMultiple@ 1000182c     kitlcore:edbgprot.obj
 0001:0000085c       ??_C@_0CD@CLDOKAPO@?$CBKITLSend?3?5Error?5in?5KitlSendFram@ 1000185c     kitlcore:edbgprot.obj
 0001:00000880       ??_C@_0FD@BAMAHPPH@0x?$CFx?5?$CI0x?$CFx?$CJ?3?5KITLSend?$CI?$CFu?$CJ?3?5Timed@ 10001880     kitlcore:edbgprot.obj
 0001:000008d4       ??_C@_02DKCKIIND@?$CFs?$AA@ 100018d4     kitlcore:edbgprot.obj
 0001:000008d8       ??_C@_0DD@OOGFOEID@?$CBKITLSend?$CIDBGMSG?$CJ?3?5Reentrant?5cal@ 100018d8     kitlcore:edbgprot.obj
 0001:0000090c       ??_C@_03OFAPEBGM@?$CFs?6?$AA@ 1000190c     kitlcore:edbgprot.obj
 0001:00000910       ??_C@_0DK@DPCAMIHE@?$CBKITLSend?3?5Data?5to?5be?5send?5overl@ 10001910     kitlcore:edbgprot.obj
 0001:0000094c       ??_C@_0CJ@KPACHCHO@?$AN?6?$CBKITLRecv?3?5Invalid?5client?5ID?5?$CF@ 1000194c     kitlcore:edbgprot.obj
 0001:00000978       ??_C@_0DJ@KKFBBHCF@?$CBKITLRecv?3?5Receive?5buffer?5overla@ 10001978     kitlcore:edbgprot.obj
 0001:00000a48       ??_C@_0BI@KCIPJAAG@?9OALKitlInit?$CIrc?5?$DN?5?$CFd?$CJ?$AN?6?$AA@ 10001a48     oal_kitl:kitl.obj
 0001:00000a60       ??_C@_0CG@NCCHEHBN@ERROR?3?5OALKitlInit?3?5KitlInit?5fai@ 10001a60     oal_kitl:kitl.obj
 0001:00000a88       ??_C@_0FG@GMOHKIKA@ERROR?3?5OALKitlInit?3?5No?5supported@ 10001a88     oal_kitl:kitl.obj
 0001:00000ae0       ??_C@_0CD@KFHIJAFP@WARN?3?5OALKitlInit?3?5KITL?5Disabled@ 10001ae0     oal_kitl:kitl.obj
 0001:00000b04       ??_C@_0CB@ICNOHDED@pDevice?9?$DOpDriver?4?4?4?4?4?4?4?4?4?50x?$CFx?$AN?6@ 10001b04     oal_kitl:kitl.obj
 0001:00000b28       ??_C@_0BP@LAJLJKFE@pDevice?9?$DOtype?4?4?4?4?4?4?4?4?4?4?4?4?5?$CFd?$AN?6?$AA@ 10001b28     oal_kitl:kitl.obj
 0001:00000b48       ??_C@_0BP@OJPECLKF@pDevice?9?$DOresource?4?4?4?4?4?4?4?4?5?$CFd?$AN?6?$AA@ 10001b48     oal_kitl:kitl.obj
 0001:00000b68       ??_C@_0CB@JAOILBKH@pDevice?9?$DOid?4?4?4?4?4?4?4?4?4?4?4?4?4?4?50x?$CFx?$AN?6@ 10001b68     oal_kitl:kitl.obj
 0001:00000b8c       ??_C@_0BP@ELIKEIPK@pDevice?9?$DOifcType?4?4?4?4?4?4?4?4?4?5?$CFd?$AN?6?$AA@ 10001b8c     oal_kitl:kitl.obj
 0001:00000bac       ??_C@_0CA@MADPCADD@pDevice?9?$DOName?4?4?4?4?4?4?4?4?4?4?4?4?5?$CFhs?$AN?6?$AA@ 10001bac     oal_kitl:kitl.obj
 0001:00000bcc       ??_C@_0BP@GCIAPLEP@pArgs?9?$DOip4address?4?4?4?4?4?4?4?4?5?$CFs?$AN?6?$AA@ 10001bcc     oal_kitl:kitl.obj
 0001:00000bec       ??_C@_0BP@EDAFLEND@pArgs?9?$DOdevLoc?4Pin?4?4?4?4?4?4?4?4?5?$CFd?$AN?6?$AA@ 10001bec     oal_kitl:kitl.obj
 0001:00000c0c       ??_C@_0CB@ELNIEECP@pArgs?9?$DOdevLoc?4PhysicalLoc?50x?$CFx?$AN?6@ 10001c0c     oal_kitl:kitl.obj
 0001:00000c30       ??_C@_0CB@OOHPGPEK@pArgs?9?$DOdevLoc?4LogicalLoc?4?50x?$CFx?$AN?6@ 10001c30     oal_kitl:kitl.obj
 0001:00000c54       ??_C@_0BP@CLIEPDAL@pArgs?9?$DOdevLoc?4IfcType?4?4?4?4?5?$CFd?$AN?6?$AA@ 10001c54     oal_kitl:kitl.obj
 0001:00000c74       ??_C@_0CB@LJCIEGGC@pArgs?9?$DOflags?4?4?4?4?4?4?4?4?4?4?4?4?4?50x?$CFx?$AN?6@ 10001c74     oal_kitl:kitl.obj
 0001:00000c98       ??_C@_0BP@HJJCJHBD@DeviceId?4?4?4?4?4?4?4?4?4?4?4?4?4?4?4?4?4?5?$CFs?$AN?6?$AA@ 10001c98     oal_kitl:kitl.obj
 0001:00000cb8       ??_C@_0DF@BBIFGKFF@?$CLOALKitlInit?$CI?8?$CFhs?8?0?50x?$CF08x?5?9?5?$CFd?1@ 10001cb8     oal_kitl:kitl.obj
 0001:00000cf0       ??_C@_0BD@GBONLPAN@?9OALKitlPowerOff?$AN?6?$AA@ 10001cf0     oal_kitl:kitl.obj
 0001:00000d04       ??_C@_0BD@PMDBLEBO@?$CLOALKitlPowerOff?$AN?6?$AA@ 10001d04     oal_kitl:kitl.obj
 0001:00000d18       ??_C@_0BC@KIOCKNCJ@?9OALKitlPowerOn?$AN?6?$AA@ 10001d18     oal_kitl:kitl.obj
 0001:00000d2c       ??_C@_0BC@KGJOBBKM@?$CLOALKitlPowerOn?$AN?6?$AA@ 10001d2c     oal_kitl:kitl.obj
 0001:00000d40       ??_C@_0BI@GBPEIAJI@?9OEMKitlInit?$CIrc?5?$DN?5?$CFd?$CJ?$AN?6?$AA@ 10001d40     oal_kitl:kitl.obj
 0001:00000d58       ??_C@_0BH@DJPAMHLI@?$CLOEMKitlInit?$CI0x?$CF08x?$CJ?$AN?6?$AA@ 10001d58     oal_kitl:kitl.obj
 0001:00000e00       ??_C@_0CG@IHIMJOIA@?9OALKitlCreateName?$CIpBuffer?5?$DN?5?8?$CFh@ 10001e00     oal_kitl:name.obj
 0001:00000e28       ??_C@_0CM@BCMDHFLI@?$CLOALKitlCreateName?$CI?8?$CFhs?8?0?50x?$CF04x@ 10001e28     oal_kitl:name.obj
 0001:00000ee8       ??_C@_0EB@BGCKLDE@?9OALKitlFindDevice?$CIpDevice?5?$DN?50x?$CF@ 10001ee8     oal_kitl:device.obj
 0001:00000f2c       ??_C@_11LOCGONAA@?$AA?$AA@ 10001f2c     oal_kitl:device.obj
 0001:00000f30       ??_C@_0CJ@GPDFFIKB@?$CLOALKitlFindDevice?$CI?$CFd?1?$CFd?1?$CF08x?0?50@ 10001f30     oal_kitl:device.obj
 0001:00000ff0       ??_C@_1BI@FCMLLAGN@?$AA?$CF?$AAd?$AA?4?$AA?$CF?$AAd?$AA?4?$AA?$CF?$AAd?$AA?4?$AA?$CF?$AAd?$AA?$AA@ 10001ff0     oal_kitl:format.obj
 0001:0000109c       ??_C@_0BG@PDHAIEPB@?9SerialSend?$CIrc?5?$DN?51?$CJ?$AN?6?$AA@ 1000209c     oal_kitl:kitlserial.obj
 0001:000010b4       ??_C@_0BK@FJBKAKDG@?$CLSerialSend?$CI0x?$CF08x?0?5?$CFd?$CJ?$AN?6?$AA@ 100020b4     oal_kitl:kitlserial.obj
 0001:000010d0       ??_C@_0BN@FOGKPFOM@?9SerialRecv?$CI?$CKpLength?5?$DN?5?$CFd?$CJ?$AN?6?$AA@ 100020d0     oal_kitl:kitlserial.obj
 0001:000010f0       ??_C@_0DN@FPKOAPOO@ERROR?3?5SerialRecv?3?5Received?5pack@ 100020f0     oal_kitl:kitlserial.obj
 0001:00001130       ??_C@_0DI@FBKFFAPI@WARN?3?5SerialRecv?3?5Packet?5checksu@ 10002130     oal_kitl:kitlserial.obj
 0001:00001168       ??_C@_0FC@OLAMHMJA@WARN?3?5SerialRecv?3?5payload?5size?5e@ 10002168     oal_kitl:kitlserial.obj
 0001:000011c0       ??_C@_0FE@EPOLMELO@WARN?3?5SerialRecv?3?5Packet?5type?5wr@ 100021c0     oal_kitl:kitlserial.obj
 0001:00001218       ??_C@_0FH@COFDJCJM@WARN?3?5SerialRecv?3?5Header?5checksu@ 10002218     oal_kitl:kitlserial.obj
 0001:00001270       ??_C@_0BK@PNMBDCIB@?$CLSerialRecv?$CI0x?$CF08x?0?5?$CFd?$CJ?$AN?6?$AA@ 10002270     oal_kitl:kitlserial.obj
 0001:0000128c       ??_C@_0BO@KPIGKMGK@?9OALKitlSerialInit?$CIrc?5?$DN?5?$CFd?$CJ?$AN?6?$AA@ 1000228c     oal_kitl:kitlserial.obj
 0001:000012ac       ??_C@_0CG@IJDAEBCE@WARN?3?5KITL?5will?5run?5in?5polling?5m@ 100022ac     oal_kitl:kitlserial.obj
 0001:000012d4       ??_C@_0CN@MENCFIED@WARN?3?5KITL?5can?8t?5obtain?5SYSINTR?5@ 100022d4     oal_kitl:kitlserial.obj
 0001:00001304       ??_C@_0CO@BPFMIJNH@WARN?3?5KITL?5can?8t?5obtain?5IRQ?5for?5@ 10002304     oal_kitl:kitlserial.obj
 0001:00001334       ??_C@_0CF@GMMNDEHJ@ERROR?3?5KITL?5call?5to?5pfnInit?5fail@ 10002334     oal_kitl:kitlserial.obj
 0001:0000135c       ??_C@_0CE@LGCGCDLA@ERROR?3?5KITL?5device?5driver?5is?5NUL@ 1000235c     oal_kitl:kitlserial.obj
 0001:00001380       ??_C@_0DB@NNJFABKG@?$CLOALKitlSerialInit?$CI?8?$CFS?8?0?5?8?$CFs?8?0?50@ 10002380     oal_kitl:kitlserial.obj
 0001:00001448       ??_C@_0CB@GFLGAKPJ@KITL?3?5Start?5DHCP?5RENEW?5process?$AN?6@ 10002448     oal_kitl:kitleth.obj
 0001:0000146c       ??_C@_0CJ@OFEHEAMD@KITL?3?5Connected?5host?5?5IP?3?5?$CFs?5?5Po@ 1000246c     oal_kitl:kitleth.obj
 0001:00001498       ??_C@_0CO@LIMJACDF@?9KitlEthDecode?$CIpData?5?$DN?50x?$CF08x?0?5l@ 10002498     oal_kitl:kitleth.obj
 0001:000014c8       ??_C@_0CF@DCHGBGAP@?$CLKitlEthDecode?$CI0x?$CF08x?0?50x?$CF08x?9?$DO?$CF@ 100024c8     oal_kitl:kitleth.obj
 0001:000014f0       ??_C@_0BJ@BAFHPAIJ@?9KitlEthEncode?$CIrc?5?$DN?51?$CJ?$AN?6?$AA@ 100024f0     oal_kitl:kitleth.obj
 0001:0000150c       ??_C@_0BL@NHDADPAH@?$CLKitlEthEncode?$CI?$CF08x?0?5?$CFd?$CJ?$AN?6?$AA@ 1000250c     oal_kitl:kitleth.obj
 0001:00001528       ??_C@_0BN@OHPDCAJH@?9KitlEthGetDevCfg?$CIrc?5?$DN?5?$CFd?$CJ?$AN?6?$AA@ 10002528     oal_kitl:kitleth.obj
 0001:00001548       ??_C@_0CI@LLEHHLED@?$CLKitlEthGetDevCfg?$CI0x?$CF08x?0?50x?$CF08x@ 10002548     oal_kitl:kitleth.obj
 0001:00001570       ??_C@_0BI@DJIGCCGG@?9KitlEthSend?$CIrc?5?$DN?5?$CFd?$CJ?$AN?6?$AA@ 10002570     oal_kitl:kitleth.obj
 0001:00001588       ??_C@_0CA@ELPHLPBP@?$CBDriver?5Send?5failure?0?5retry?5?$CFu?6?$AA@ 10002588     oal_kitl:kitleth.obj
 0001:000015a8       ??_C@_0BL@MJDALEMH@?$CLKitlEthSend?$CI0x?$CF08x?0?5?$CFd?$CJ?$AN?6?$AA@ 100025a8     oal_kitl:kitleth.obj
 0001:000015c4       ??_C@_0BI@PEEPNADN@?9KitlEthRecv?$CIrc?5?$DN?5?$CFd?$CJ?$AN?6?$AA@ 100025c4     oal_kitl:kitleth.obj
 0001:000015dc       ??_C@_0CD@HNBDALDE@?$CLKitlEthRecv?$CI0x?$CF08x?0?50x?$CF08x?9?$DO?$CFd?$CJ@ 100025dc     oal_kitl:kitleth.obj
 0001:00001600       ??_C@_0BE@NDAHGBJL@?9KitlEthEnableInt?$AN?6?$AA@ 10002600     oal_kitl:kitleth.obj
 0001:00001614       ??_C@_0BI@OLDCGLHD@?$CLKitlEthEnableInt?$CI?$CFd?$CJ?$AN?6?$AA@ 10002614     oal_kitl:kitleth.obj
 0001:0000162c       ??_C@_0BM@FALEIOIG@?9OALIoCtlVBridge?$CIrc?5?$DN?5?$CFd?$CJ?$AN?6?$AA@ 1000262c     oal_kitl:kitleth.obj
 0001:00001648       ??_C@_0BP@BIAFCCDM@?$CLOALIoCtlVBridge?$CI0x?$CF08x?0?4?4?4?$CJ?$AN?6?$AA@ 10002648     oal_kitl:kitleth.obj
 0001:00001668       ??_C@_0CF@CNPGAGEH@KITL?3?5DHCP?5get?1renew?5device?5IP?3?5@ 10002668     oal_kitl:kitleth.obj
 0001:00001690       ??_C@_0BL@OCIIDPCB@?9OALKitlEthInit?$CIrc?5?$DN?5?$CFd?$CJ?$AN?6?$AA@ 10002690     oal_kitl:kitleth.obj
 0001:000016ac       ??_C@_0BL@EIDMIDBA@KITL?3?5using?5sysintr?50x?$CFx?$AN?6?$AA@ 100026ac     oal_kitl:kitleth.obj
 0001:000016c8       ??_C@_0BP@ILGKAKAA@KITL?3?5?$CK?$CK?$CK?5Device?5Name?5?$CFs?5?$CK?$CK?$CK?$AN?6?$AA@ 100026c8     oal_kitl:kitleth.obj
 0001:000016e8       ??_C@_0CO@PDOCGCJP@ERROR?3?5KITL?5call?5to?5pfnInitDmaBu@ 100026e8     oal_kitl:kitleth.obj
 0001:00001718       ??_C@_0CO@HIMCOMKP@?$CLOALKitlEthInit?$CI?8?$CFS?8?0?5?8?$CFs?8?0?50x?$CF0@ 10002718     oal_kitl:kitleth.obj
 0001:000018f8       ??_C@_1LA@OCDBKKO@?$AAD?$AA?3?$AA?2?$AAW?$AAI?$AAN?$AAC?$AAE?$AA6?$AA0?$AA0?$AA?2?$AAp?$AAl?$AAa?$AAt?$AAf?$AAo?$AAr?$AAm?$AA?2?$AAc?$AAo?$AAm?$AAm?$AAo?$AAn?$AA?2?$AAs?$AAr?$AAc?$AA?2@ 100028f8     i_ddk_apbhdma_mx28_fsl_v2_pdk1_9:i_ddk_apbhdma.obj
 0001:000019a8       ??_C@_1CI@OHCJFJPM@?$AAE?$AAR?$AAR?$AAO?$AAR?$AA?3?$AA?5?$AA?$CF?$AAs?$AA?5?$AAl?$AAi?$AAn?$AAe?$AA?5?$AA?$CF?$AAd?$AA?3?$AA?5?$AA?$AA@ 100029a8     i_ddk_apbhdma_mx28_fsl_v2_pdk1_9:i_ddk_apbhdma.obj
 0001:000019d0       ??_C@_1EK@GOOMGDOE@?$AAA?$AAp?$AAb?$AAh?$AAD?$AAm?$AAa?$AAA?$AAl?$AAl?$AAo?$AAc?$AA?3?$AA?3?$AAM?$AAm?$AAM?$AAa?$AAp?$AAI?$AAo?$AAS?$AAp?$AAa?$AAc?$AAe?$AA?5?$AAf?$AAa?$AAi?$AAl?$AAe@ 100029d0     i_ddk_apbhdma_mx28_fsl_v2_pdk1_9:i_ddk_apbhdma.obj
 0001:00001ab0       ??_C@_1LK@NNCIPOCB@?$AAD?$AA?3?$AA?2?$AAW?$AAI?$AAN?$AAC?$AAE?$AA6?$AA0?$AA0?$AA?2?$AAp?$AAl?$AAa?$AAt?$AAf?$AAo?$AAr?$AAm?$AA?2?$AAc?$AAo?$AAm?$AAm?$AAo?$AAn?$AA?2?$AAs?$AAr?$AAc?$AA?2@ 10002ab0     i_ddk_iomux_mx28_fsl_v2_pdk1_9:i_soc_ddk_iomux.obj
 0001:00001b70       ??_C@_1EO@FDEPDNPK@?$AAI?$AAo?$AAm?$AAu?$AAx?$AAA?$AAl?$AAl?$AAo?$AAc?$AA?3?$AA?5?$AA?5?$AAV?$AAi?$AAr?$AAt?$AAu?$AAa?$AAl?$AA?5?$AAm?$AAa?$AAp?$AAp?$AAi?$AAn?$AAg?$AA?5?$AAf?$AAa?$AAi@ 10002b70     i_ddk_iomux_mx28_fsl_v2_pdk1_9:i_soc_ddk_iomux.obj
 0001:00001c50       ??_C@_1KI@NLCPHMIG@?$AAD?$AA?3?$AA?2?$AAW?$AAI?$AAN?$AAC?$AAE?$AA6?$AA0?$AA0?$AA?2?$AAp?$AAl?$AAa?$AAt?$AAf?$AAo?$AAr?$AAm?$AA?2?$AAc?$AAo?$AAm?$AAm?$AAo?$AAn?$AA?2?$AAs?$AAr?$AAc?$AA?2@ 10002c50     i_ddk_clk_mx28_fsl_v2_pdk1_9:i_ddk_clk.obj
 0001:00001cf8       ??_C@_1IC@BAEADKIC@?$AAD?$AA?3?$AA?2?$AAW?$AAI?$AAN?$AAC?$AAE?$AA6?$AA0?$AA0?$AA?2?$AAp?$AAl?$AAa?$AAt?$AAf?$AAo?$AAr?$AAm?$AA?2?$AAE?$AAM?$AA9?$AA2?$AA8?$AA0?$AA?2?$AAs?$AAr?$AAc?$AA?2@ 10002cf8     i_ddk_clk_mx28_fsl_v2_pdk1_9:i_ddk_clk.obj
 0001:00001d80       ??_C@_1EO@BABGMAOC@?$AAB?$AAS?$AAP?$AAC?$AAl?$AAo?$AAc?$AAk?$AAA?$AAl?$AAl?$AAo?$AAc?$AA?3?$AA?5?$AA?5?$AAM?$AAm?$AAM?$AAa?$AAp?$AAI?$AAo?$AAS?$AAp?$AAa?$AAc?$AAe?$AA?5?$AAf?$AAa?$AAi@ 10002d80     i_ddk_clk_mx28_fsl_v2_pdk1_9:i_ddk_clk.obj
 0001:00001dd0       ??_C@_1EG@FCNOKBMG@?$AAC?$AAl?$AAo?$AAc?$AAk?$AAA?$AAl?$AAl?$AAo?$AAc?$AA?3?$AA?3?$AAM?$AAm?$AAM?$AAa?$AAp?$AAI?$AAo?$AAS?$AAp?$AAa?$AAc?$AAe?$AA?5?$AAf?$AAa?$AAi?$AAl?$AAe?$AAd?$AA?$CB@ 10002dd0     i_ddk_clk_mx28_fsl_v2_pdk1_9:i_ddk_clk.obj
 0001:00001e18       ??_C@_1DE@DAHNLBLJ@?$AA?9?$AAO?$AAA?$AAL?$AAP?$AAA?$AAt?$AAo?$AAV?$AAA?$AA?$CI?$AAv?$AAa?$AA?5?$AA?$DN?$AA?5?$AA0?$AAx?$AA?$CF?$AA0?$AA8?$AAx?$AA?$CJ?$AA?$AN?$AA?6?$AA?$AA@ 10002e18     oal_memory_arm:memory.obj
 0001:00001e4c       ??_C@_1CO@JEIJEAKF@?$AA?$CL?$AAO?$AAA?$AAL?$AAP?$AAA?$AAt?$AAo?$AAV?$AAA?$AA?$CI?$AA0?$AAx?$AA?$CF?$AAx?$AA?0?$AA?5?$AA?$CF?$AAd?$AA?$CJ?$AA?$AN?$AA?6?$AA?$AA@ 10002e4c     oal_memory_arm:memory.obj
 0001:00001e7c       ??_C@_1DA@BBOHBBNH@?$AA?9?$AAO?$AAA?$AAL?$AAV?$AAA?$AAt?$AAo?$AAP?$AAA?$AA?$CI?$AAp?$AAa?$AA?5?$AA?$DN?$AA?5?$AA0?$AAx?$AA?$CF?$AAx?$AA?$CJ?$AA?$AN?$AA?6?$AA?$AA@ 10002e7c     oal_memory_arm:memory.obj
 0001:00001eac       ??_C@_1CK@LKNIEAFP@?$AA?$CL?$AAO?$AAA?$AAL?$AAV?$AAA?$AAt?$AAo?$AAP?$AAA?$AA?$CI?$AA0?$AAx?$AA?$CF?$AA0?$AA8?$AAx?$AA?$CJ?$AA?$AN?$AA?6?$AA?$AA@ 10002eac     oal_memory_arm:memory.obj
 0001:00001f68       ??_C@_1EA@DJGHLELP@?$AA?9?$AAO?$AAA?$AAL?$AAA?$AAr?$AAg?$AAs?$AAQ?$AAu?$AAe?$AAr?$AAy?$AA?$CI?$AAp?$AAD?$AAa?$AAt?$AAa?$AA?5?$AA?$DN?$AA?5?$AA0?$AAx?$AA?$CF?$AA0?$AA8?$AAx?$AA?$CJ?$AA?$AN?$AA?6?$AA?$AA@ 10002f68     args:args.obj
 0001:00001fa8       ??_C@_1EI@BLBGLIKJ@?$AAO?$AAA?$AAL?$AAA?$AAr?$AAg?$AAs?$AAQ?$AAu?$AAe?$AAr?$AAy?$AA?3?$AA?5?$AAO?$AAA?$AAL?$AA_?$AAA?$AAR?$AAG?$AAS?$AA_?$AAQ?$AAU?$AAE?$AAR?$AAY?$AA_?$AAU?$AAU?$AAI@ 10002fa8     args:args.obj
 0001:00001ff0       ??_C@_1CI@CLMEBIJE@?$AA?$CL?$AAO?$AAA?$AAL?$AAA?$AAr?$AAg?$AAs?$AAQ?$AAu?$AAe?$AAr?$AAy?$AA?$CI?$AA?$CF?$AAd?$AA?$CJ?$AA?$AN?$AA?6?$AA?$AA@ 10002ff0     args:args.obj
 0001:00002138       ??_C@_0EH@OHHLEIM@VBridge?3?5Error?$CB?5ProduceBufferDon@ 10003138     vbridge:vbridge.obj
 0001:00002180       ??_C@_0ED@LALCLDGC@VBridge?3?5Error?$CB?5ConsumeBuffer?$CI?$CJ?5@ 10003180     vbridge:vbridge.obj
 0001:000021c8       ??_C@_0EH@PDMAJMNN@VBridge?3?5Error?$CB?5ConsumeBufferDon@ 100031c8     vbridge:vbridge.obj
 0001:00002210       ??_C@_0GA@BIIJJCHI@VBridge?3?5Error?$CB?5ConsumeBufferDon@ 10003210     vbridge:vbridge.obj
 0001:00002270       ??_C@_08NANCIHJK@13?345?314?$AA@ 10003270     vbridge:vbridge.obj
 0001:0000227c       ??_C@_0M@DDKHGNMF@Apr?512?52012?$AA@ 1000327c     vbridge:vbridge.obj
 0001:00002288       ??_C@_0CE@JNBGKBJC@VBridge?3?3?5built?5on?5?$FL?$CFs?$FN?5time?5?$FL?$CFs@ 10003288     vbridge:vbridge.obj
 0001:000022ac       ??_C@_0DF@FKGFCLPJ@VBridgeInit?$CI?$CJ?4?4?4TX?5?$DN?5?$FL?$CFd?$FN?5bytes?5@ 100032ac     vbridge:vbridge.obj
 0001:000022e4       ??_C@_0BO@IKIKAINA@Tx?5buffer?5?$FL0x?$CFx?$FN?5to?5?$FL0x?$CFx?$FN?4?$AN?6?$AA@ 100032e4     vbridge:vbridge.obj
 0001:00002304       ??_C@_0BO@DMIECOA@Rx?5buffer?5?$FL0x?$CFx?$FN?5to?5?$FL0x?$CFx?$FN?4?$AN?6?$AA@ 10003304     vbridge:vbridge.obj
 0001:00002324       ??_C@_0CO@ILLJABOE@VBridgeKGetOneTxBuffer?$CI?$CJ?5Err?$CB?5?$FL0@ 10003324     vbridge:vbridge.obj
 0001:00002354       ??_C@_0DE@LOPBMMHM@VBridgeKGetOneTxBufferComplete?$CI?$CJ@ 10003354     vbridge:vbridge.obj
 0001:00002388       ??_C@_0DJ@LKNKOIHJ@VBridgeKIndicateOneRxBuffer?$CI?$CJ?5Er@ 10003388     vbridge:vbridge.obj
 0001:000023c4       ??_C@_0DI@HEJDFJBF@?$CK?$CK?5WARNING?$CB?$CB?$CB?5?$CK?$CK?5Device?5MAC?5addr@ 100033c4     vbridge:vbridge.obj
 0001:000023fc       ??_C@_0CM@PJABNFGI@VBridge?3?3?5NK?5add?5MAC?3?5?$FL?$CFx?9?$CFx?9?$CFx?9@ 100033fc     vbridge:vbridge.obj
 0001:00002428       ??_C@_0DJ@JPHIEPAD@VBridgeKSetLocalMacAddress?$CI?$CJ?5Err@ 10003428     vbridge:vbridge.obj
 0001:00002464       ??_C@_0DA@BNPLKEKM@VBridgeUGetOneTxPacket?$CI?$CJ?5Err?$CB?$CB?5?$FL@ 10003464     vbridge:vbridge.obj
 0001:00002494       ??_C@_0DI@MDDGKNHB@VBridgeUGetOneTxPacketComplete?$CI?$CJ@ 10003494     vbridge:vbridge.obj
 0001:000024cc       ??_C@_0DA@MGPGECBI@VBridgeUGetOneRxPacket?$CI?$CJ?5Err?$CB?$CB?5?$FL@ 100034cc     vbridge:vbridge.obj
 0001:000024fc       ??_C@_0DA@KIINIKAM@VBridgeUGetOneRxPacketComplete?$CI?$CJ@ 100034fc     vbridge:vbridge.obj
 0001:0000252c       ??_C@_0CD@KPODIJAL@VBridge?3?3?5RESET_BUFFER?5received?4@ 1000352c     vbridge:vbridge.obj
 0001:00002550       ??_C@_0CI@BDPMFOMO@VBridge?3?3?5VB_INITIALIZED?5returns@ 10003550     vbridge:vbridge.obj
 0001:00002578       ??_C@_0DB@IMBKLANK@VBridgeUGetEDBGMac?$CI?$CJ?0?5ERR?$CB?5NULL?5@ 10003578     vbridge:vbridge.obj
 0001:000025ac       ??_C@_0DB@BMKDFNPB@VBridge?3?3?5Current?5VMini?5packet?5f@ 100035ac     vbridge:vbridge.obj
 0001:000025e0       ??_C@_0DG@MKNLPBLF@VBridgeUCurrentPacketFilter?$CI?$CJ?0?5E@ 100035e0     vbridge:vbridge.obj
 0001:000026a8       ??_C@_0BK@FGOBGFEM@RNDISMINI?5?9?9?9?5RESET?5?9?9?9?$AN?6?$AA@ 100036a8     fsl_rne_mdd_common_fsl_v2_pdk1_9:rndis.obj
 0001:000026c4       ??_C@_0CK@HCFNMAPL@RNdis?3?3?5Too?5much?5outgoing?0?5baili@ 100036c4     fsl_rne_mdd_common_fsl_v2_pdk1_9:rndis.obj
 0001:000026f0       ??_C@_0DK@LOJODLJL@ASSERT?$CB?5Rndis?3?3MddSendRndisMessa@ 100036f0     fsl_rne_mdd_common_fsl_v2_pdk1_9:rndis.obj
 0001:0000272c       ??_C@_0DI@ELIDGGNF@ASSERT?5Fail?5at?5uiMessageSize?$CI?$CFd?$CJ@ 1000372c     fsl_rne_mdd_common_fsl_v2_pdk1_9:rndis.obj
 0001:00002764       ??_C@_0CK@BEACHKGH@RNdis?3?3?5No?5mem?5for?5INITIALIZE_CO@ 10003764     fsl_rne_mdd_common_fsl_v2_pdk1_9:rndis.obj
 0001:00002790       ??_C@_0BN@MJFOLLBM@RNdis?3?3?5Should?5not?5happen?$CB?$AN?6?$AA@ 10003790     fsl_rne_mdd_common_fsl_v2_pdk1_9:rndis.obj
 0001:000027b0       ??_C@_0CO@JHJMPDCG@RNDISMINI?5Err?$CB?$CB?5unsupported?5RNDI@ 100037b0     fsl_rne_mdd_common_fsl_v2_pdk1_9:rndis.obj
 0001:000027e0       ??_C@_0CP@HEPIJLKK@RndisMdd?3?3?5PDD?8s?5max?5RX?5buffer?5?$DN@ 100037e0     fsl_rne_mdd_common_fsl_v2_pdk1_9:rndis.obj
 0001:00002810       ??_C@_0CK@JCOPOCLM@ERROR?$CB?5RndisInitialize?5msg?5recei@ 10003810     fsl_rne_mdd_common_fsl_v2_pdk1_9:rndis.obj
 0001:0000283c       ??_C@_0DB@NGCDHJGD@RndisMini?5recv?5REMOTE_NDIS_HALT_@ 1000383c     fsl_rne_mdd_common_fsl_v2_pdk1_9:rndis.obj
 0001:00002870       ??_C@_09JBPNJICM@rndis?4cpp?$AA@ 10003870     fsl_rne_mdd_common_fsl_v2_pdk1_9:rndis.obj
 0001:0000287c       ??_C@_0BP@HHOMIKAO@ASSERT?5at?5File?$CI?$CFs?$CJ?5line?5?$CI?$CFd?$CJ?$AN?6?$AA@ 1000387c     fsl_rne_mdd_common_fsl_v2_pdk1_9:rndis.obj
 0001:0000289c       ??_C@_0DB@PAFHLFPB@RndisMini?5rcv?5REMOTE_NDIS_RESET_@ 1000389c     fsl_rne_mdd_common_fsl_v2_pdk1_9:rndis.obj
 0001:000028d0       ??_C@_0DA@CMCBBBCA@RNdis?3?3?5Unknown?5RNDIS?5msg?0?5buff?$FL@ 100038d0     fsl_rne_mdd_common_fsl_v2_pdk1_9:rndis.obj
 0001:00002900       ??_C@_0P@BDJJIKDL@Overrun?$DN0x?$CFx?6?$AN?$AA@ 10003900     fsl_rne_mdd_common_fsl_v2_pdk1_9:rndis.obj
 0001:00002910       ??_C@_0BJ@IJMDONAK@Buffer?5is?5too?5big?50x?$CFx?6?$AN?$AA@ 10003910     fsl_rne_mdd_common_fsl_v2_pdk1_9:rndis.obj
 0001:0000292c       ??_C@_0CK@LKMHPIGI@Wrong?5Data?5DataLength?5Msg?$DN0x?$CFx?0P@ 1000392c     fsl_rne_mdd_common_fsl_v2_pdk1_9:rndis.obj
 0001:00002958       ??_C@_0CN@OHNGADLJ@RNdis?3?3?5Invalid?5RndisPacket?5l?$FL?$CFd@ 10003958     fsl_rne_mdd_common_fsl_v2_pdk1_9:rndis.obj
 0001:00002988       ??_C@_0BH@HBKBIINO@Wrong?5Data?5Type?50x?$CFx?$AN?6?$AA@ 10003988     fsl_rne_mdd_common_fsl_v2_pdk1_9:rndis.obj
 0001:000029a0       ??_C@_0CA@IBGOHNCO@Rndis?3?3?5initialization?3?5Fail?$CB?$AN?6?$AA@ 100039a0     fsl_rne_mdd_common_fsl_v2_pdk1_9:rndis.obj
 0001:000029c0       ??_C@_0CC@EELLDCCI@Rndis?3?3?5initialization?3?5Success?$AN@ 100039c0     fsl_rne_mdd_common_fsl_v2_pdk1_9:rndis.obj
 0001:000029e4       ??_C@_0CD@EOFHIDOL@Rndis?3?3?5Get?5MAC?5address?5?$CFx?0?$CFx?0?$CFx@ 100039e4     fsl_rne_mdd_common_fsl_v2_pdk1_9:rndis.obj
 0001:00002a08       ??_C@_0CM@KLOLOCDD@Rndis?3?3?5Err?5no?5MAC?5address?5read?5@ 10003a08     fsl_rne_mdd_common_fsl_v2_pdk1_9:rndis.obj
 0001:00002a34       ??_C@_0BL@EINAHMEI@Rndis?3?3?5PDDInit?5Success?$CB?$AN?6?$AA@ 10003a34     fsl_rne_mdd_common_fsl_v2_pdk1_9:rndis.obj
 0001:00002a50       ??_C@_0BK@BFGGBGMH@Rndis?3?3?5initialization?$CB?$AN?6?$AA@ 10003a50     fsl_rne_mdd_common_fsl_v2_pdk1_9:rndis.obj
 0001:00002a6c       ??_C@_0CI@PFDJABBD@Rndis?3?3?5Address?5static?5map?5to?5ad@ 10003a6c     fsl_rne_mdd_common_fsl_v2_pdk1_9:rndis.obj
 0001:00002a94       ??_C@_0CH@LBCKJEJO@Rndis?3?3?5initialization?3?5with?5add@ 10003a94     fsl_rne_mdd_common_fsl_v2_pdk1_9:rndis.obj
 0001:00002b50       ??_C@_0BP@JDIDIKNB@OID?$FL?$CFx?$FN?5not?5yet?5implemented?$CB?$AN?6?$AA@ 10003b50     fsl_rne_mdd_common_fsl_v2_pdk1_9:hostmini.obj
 0001:00002b70       ??_C@_0CP@MKNOHPIM@HostMini?3?3?5New?5filter?5set?3?5?$FL0x?$CFx@ 10003b70     fsl_rne_mdd_common_fsl_v2_pdk1_9:hostmini.obj
 0001:00002ba0       ??_C@_0BE@LPGPNKBH@HostMiniInit?3?3?5?$CB?$CB?$AN?6?$AA@ 10003ba0     fsl_rne_mdd_common_fsl_v2_pdk1_9:hostmini.obj
 0001:00002c48       ??_C@_1O@NJEHEHHO@?$AAu?$AAt?$AAi?$AAl?$AA?4?$AAc?$AA?$AA@ 10003c48     fsl_rne_mdd_common_fsl_v2_pdk1_9:util.obj
 0001:00002c58       ??_C@_1FA@PHGBNLGM@?$AAM?$AAi?$AAc?$AAr?$AAo?$AAs?$AAo?$AAf?$AAt?$AA?5?$AAR?$AAN?$AAD?$AAI?$AAS?$AA?5?$AAK?$AAI?$AAT?$AAL?$AA?5?$AAf?$AAo?$AAr?$AA?5?$AAF?$AAS?$AAL?$AA?5?$AAH?$AAS?$AA?5@ 10003c58     fsl_rne_pdd_common_fsl_v2_pdk1_9:rndis_pdd.obj
 0001:00002ca8       ??_C@_1BE@DEAPIJA@?$AAM?$AAi?$AAc?$AAr?$AAo?$AAs?$AAo?$AAf?$AAt?$AA?$AA@ 10003ca8     fsl_rne_pdd_common_fsl_v2_pdk1_9:rndis_pdd.obj
 0001:00002d64       DigitTable                 10003d64     fsl_rne_pdd_common_fsl_v2_pdk1_9:rndis_pdd.obj
 0001:00002d88       ??_C@_1DM@FCMMONGE@?$AA?$CK?$AA?$CK?$AA?$CK?$AA?5?$AAU?$AAn?$AAk?$AAn?$AAo?$AAw?$AAn?$AA?5?$AAS?$AAT?$AAR?$AAI?$AAN?$AAG?$AA?5?$AAi?$AAn?$AAd?$AAe?$AAx?$AA?5?$AA?$CF?$AAd?$AA?$AN?$AA?6?$AA?$AA@ 10003d88     fsl_rne_pdd_common_fsl_v2_pdk1_9:rndis_pdd.obj
 0001:00002dc8       ??_C@_1FE@MMFBADFF@?$AA?$CK?$AA?$CK?$AA?$CK?$AA?5?$AAU?$AAn?$AAk?$AAn?$AAo?$AAw?$AAn?$AA?5?$AAG?$AAE?$AAT?$AA_?$AAD?$AAE?$AAS?$AAC?$AAR?$AAI?$AAP?$AAT?$AAO?$AAR?$AA?5?$AAr?$AAe?$AAq?$AAu?$AAe@ 10003dc8     fsl_rne_pdd_common_fsl_v2_pdk1_9:rndis_pdd.obj
 0001:00002e1c       ??_C@_1CK@OLHEFDLK@?$AAN?$AAo?$AA?5?$AAm?$AAe?$AAm?$AA?5?$AAf?$AAo?$AAr?$AA?5?$AAR?$AAX?$AA?5?$AAd?$AAa?$AAt?$AAa?$AA?$AN?$AA?6?$AA?$AA@ 10003e1c     fsl_rne_pdd_common_fsl_v2_pdk1_9:rndis_pdd.obj
 0001:00002e48       ??_C@_1DI@FELDACDH@?$AAN?$AAo?$AA?5?$AAm?$AAe?$AAm?$AA?5?$AAf?$AAo?$AAr?$AA?5?$AAR?$AAX?$AA?5?$AAD?$AAa?$AAt?$AAa?$AAW?$AAr?$AAa?$AAp?$AAp?$AAe?$AAr?$AA?$AN?$AA?6?$AA?$AA@ 10003e48     fsl_rne_pdd_common_fsl_v2_pdk1_9:rndis_pdd.obj
 0001:00002e80       ??_C@_1DG@HDGBABFG@?$AA?$CK?$AA?$CK?$AA?$CK?$AA?5?$AAU?$AAn?$AAk?$AAn?$AAo?$AAw?$AAn?$AA?5?$AAr?$AAe?$AAq?$AAu?$AAe?$AAs?$AAt?$AA?5?$AA0?$AAx?$AA?$CF?$AAx?$AA?$AN?$AA?6?$AA?$AA@ 10003e80     fsl_rne_pdd_common_fsl_v2_pdk1_9:rndis_pdd.obj
 0001:00002eb8       ??_C@_1FI@GLILKAEG@?$AA?$CK?$AA?$CK?$AA?$CK?$AA?5?$AAU?$AAn?$AAH?$AAa?$AAn?$AAd?$AAl?$AAe?$AAd?$AA?5?$AAG?$AAE?$AAT?$AA_?$AAD?$AAE?$AAS?$AAC?$AAR?$AAI?$AAP?$AAT?$AAO?$AAR?$AA?5?$AAr?$AAe?$AAq@ 10003eb8     fsl_rne_pdd_common_fsl_v2_pdk1_9:rndis_pdd.obj
 0001:00002f10       ??_C@_1CO@NANJHOKH@?$AA?$CK?$AA?$CK?$AA?$CK?$AAR?$AAe?$AAq?$AAu?$AAe?$AAs?$AAt?$AAT?$AAy?$AAp?$AAe?$AA?$DN?$AA?$DN?$AA0?$AAx?$AA0?$AA2?$AA?$AN?$AA?6?$AA?$AA@ 10003f10     fsl_rne_pdd_common_fsl_v2_pdk1_9:rndis_pdd.obj
 0001:00002f40       ??_C@_1CO@MDAODOFD@?$AA?$CK?$AA?$CK?$AA?$CK?$AAR?$AAe?$AAq?$AAu?$AAe?$AAs?$AAt?$AAT?$AAy?$AAp?$AAe?$AA?$DN?$AA?$DN?$AA0?$AAx?$AA8?$AA2?$AA?$AN?$AA?6?$AA?$AA@ 10003f40     fsl_rne_pdd_common_fsl_v2_pdk1_9:rndis_pdd.obj
 0001:00002f70       ??_C@_1EM@PLFMLLKO@?$AA?$CK?$AA?$CK?$AA?$CK?$AA?$CK?$AA?5?$AAU?$AAn?$AAh?$AAa?$AAn?$AAd?$AAl?$AAe?$AAd?$AA?5?$AAv?$AAe?$AAr?$AAn?$AAd?$AAo?$AAr?$AA?5?$AAc?$AAo?$AAm?$AAm?$AAa?$AAn?$AAd?$AA?5?$AA0@ 10003f70     fsl_rne_pdd_common_fsl_v2_pdk1_9:rndis_pdd.obj
 0001:00002fbc       ??_C@_1O@KIJBGEAN@?$AAD?$AAo?$AAn?$AAe?$AA?$AN?$AA?6?$AA?$AA@ 10003fbc     fsl_rne_pdd_common_fsl_v2_pdk1_9:rndis_pdd.obj
 0001:00002fd0       ??_C@_1FG@LFHLPLMG@?$AAS?$AAe?$AAn?$AAd?$AAP?$AAa?$AAc?$AAk?$AAe?$AAt?$AA?5?$AAr?$AAe?$AAq?$AAu?$AAe?$AAs?$AAt?$AA?5?$AAc?$AAo?$AAm?$AAp?$AAl?$AAe?$AAt?$AAe?$AAd?$AA?$CB?$AA?5?$AA?$FL?$AA?$CF@ 10003fd0     fsl_rne_pdd_common_fsl_v2_pdk1_9:rndis_pdd.obj
 0001:00003028       ??_C@_1EI@ONHOMNHJ@?$AA?9?$AAR?$AAN?$AAD?$AAI?$AAS?$AA_?$AAU?$AAS?$AAB?$AAF?$AAN?$AA_?$AAP?$AAD?$AAD?$AA_?$AAS?$AAe?$AAn?$AAd?$AAR?$AAn?$AAd?$AAi?$AAs?$AAM?$AAe?$AAs?$AAs?$AAa?$AAg@ 10004028     fsl_rne_pdd_common_fsl_v2_pdk1_9:rndis_pdd.obj
 0001:00003070       ??_C@_1HE@PDJOEOPK@?$AA?$CL?$AAR?$AAN?$AAD?$AAI?$AAS?$AA_?$AAU?$AAS?$AAB?$AAF?$AAN?$AA_?$AAP?$AAD?$AAD?$AA_?$AAS?$AAe?$AAn?$AAd?$AAR?$AAn?$AAd?$AAi?$AAs?$AAM?$AAe?$AAs?$AAs?$AAa?$AAg@ 10004070     fsl_rne_pdd_common_fsl_v2_pdk1_9:rndis_pdd.obj
 0001:000030e8       ??_C@_1GK@OCDDHLML@?$AA?$CL?$AAR?$AAN?$AAD?$AAI?$AAS?$AA_?$AAU?$AAS?$AAB?$AAF?$AAN?$AA_?$AAP?$AAD?$AAD?$AA_?$AAS?$AAe?$AAn?$AAd?$AAR?$AAn?$AAd?$AAi?$AAs?$AAM?$AAe?$AAs?$AAs?$AAa?$AAg@ 100040e8     fsl_rne_pdd_common_fsl_v2_pdk1_9:rndis_pdd.obj
 0001:00003158       ??_C@_1EI@LPKHCIID@?$AA?$CL?$AAR?$AAN?$AAD?$AAI?$AAS?$AA_?$AAU?$AAS?$AAB?$AAF?$AAN?$AA_?$AAP?$AAD?$AAD?$AA_?$AAS?$AAe?$AAn?$AAd?$AAR?$AAn?$AAd?$AAi?$AAs?$AAM?$AAe?$AAs?$AAs?$AAa?$AAg@ 10004158     fsl_rne_pdd_common_fsl_v2_pdk1_9:rndis_pdd.obj
 0001:000031a0       ??_C@_1EG@FPFPIBJG@?$AA?9?$AAR?$AAN?$AAD?$AAI?$AAS?$AA_?$AAU?$AAS?$AAB?$AAF?$AAN?$AA_?$AAP?$AAD?$AAD?$AA_?$AAS?$AAe?$AAn?$AAd?$AAR?$AAn?$AAd?$AAi?$AAs?$AAP?$AAa?$AAc?$AAk?$AAe?$AAt@ 100041a0     fsl_rne_pdd_common_fsl_v2_pdk1_9:rndis_pdd.obj
 0001:000031e8       ??_C@_1FG@MIKLDILD@?$AA?$CK?$AA?$CK?$AA?$CK?$AA?$CK?$AAM?$AAu?$AAl?$AAt?$AAi?$AAp?$AAl?$AAe?$AA?5?$AAp?$AAe?$AAn?$AAd?$AAi?$AAn?$AAg?$AA?5?$AAs?$AAe?$AAn?$AAd?$AA?5?$AAr?$AAn?$AAd?$AAi?$AAs?$AA?5@ 100041e8     fsl_rne_pdd_common_fsl_v2_pdk1_9:rndis_pdd.obj
 0001:00003240       ??_C@_1EI@PJCOBAOE@?$AAG?$AAo?$AAt?$AA?5?$AAS?$AAe?$AAn?$AAd?$AAP?$AAa?$AAc?$AAk?$AAe?$AAt?$AA?5?$AAR?$AAe?$AAq?$AAu?$AAe?$AAs?$AAt?$AA?5?$AA?$FL?$AA?$CF?$AAd?$AA?5?$AAb?$AAy?$AAt?$AAe?$AAs@ 10004240     fsl_rne_pdd_common_fsl_v2_pdk1_9:rndis_pdd.obj
 0001:00003288       ??_C@_1EG@FDHKBGKN@?$AA?$CL?$AAR?$AAN?$AAD?$AAI?$AAS?$AA_?$AAU?$AAS?$AAB?$AAF?$AAN?$AA_?$AAP?$AAD?$AAD?$AA_?$AAS?$AAe?$AAn?$AAd?$AAR?$AAn?$AAd?$AAi?$AAs?$AAP?$AAa?$AAc?$AAk?$AAe?$AAt@ 10004288     fsl_rne_pdd_common_fsl_v2_pdk1_9:rndis_pdd.obj
 0001:000032d0       ??_C@_0BO@FJNCJEJP@Discard?5?$CFd?5Pending?5Messages?$AN?6?$AA@ 100042d0     fsl_rne_pdd_common_fsl_v2_pdk1_9:rndis_pdd.obj
 0001:000032f0       ??_C@_1CO@MBMDAIGD@?$AA?9?$AAR?$AAN?$AAD?$AAI?$AAS?$AA_?$AAU?$AAS?$AAB?$AAF?$AAN?$AA_?$AAP?$AAD?$AAD?$AA_?$AAS?$AAe?$AAt?$AA?$AN?$AA?6?$AA?$AA@ 100042f0     fsl_rne_pdd_common_fsl_v2_pdk1_9:rndis_pdd.obj
 0001:00003320       ??_C@_1DI@LPFOEPEC@?$AAP?$AAD?$AAD?$AA_?$AAS?$AAe?$AAt?$AA?3?$AAR?$AAE?$AAQ?$AA_?$AAI?$AAD?$AA_?$AAH?$AAA?$AAR?$AAD?$AA_?$AAR?$AAE?$AAS?$AAE?$AAT?$AA?$AN?$AA?6?$AA?$AA@ 10004320     fsl_rne_pdd_common_fsl_v2_pdk1_9:rndis_pdd.obj
 0001:00003358       ??_C@_1DI@MFNCMIPE@?$AAP?$AAD?$AAD?$AA_?$AAS?$AAe?$AAt?$AA?3?$AAR?$AAE?$AAQ?$AA_?$AAI?$AAD?$AA_?$AAS?$AAO?$AAF?$AAT?$AA_?$AAR?$AAE?$AAS?$AAE?$AAT?$AA?$AN?$AA?6?$AA?$AA@ 10004358     fsl_rne_pdd_common_fsl_v2_pdk1_9:rndis_pdd.obj
 0001:00003390       ??_C@_1DI@KFPGHMKG@?$AAP?$AAD?$AAD?$AA_?$AAS?$AAe?$AAt?$AA?3?$AAR?$AAE?$AAQ?$AA_?$AAI?$AAD?$AA_?$AAE?$AAN?$AAA?$AAB?$AAL?$AAE?$AA_?$AAI?$AAN?$AAT?$AA?$AN?$AA?6?$AA?$AA@ 10004390     fsl_rne_pdd_common_fsl_v2_pdk1_9:rndis_pdd.obj
 0001:000033c8       ??_C@_1DK@PGGKHLLK@?$AAP?$AAD?$AAD?$AA_?$AAS?$AAe?$AAt?$AA?3?$AAR?$AAE?$AAQ?$AA_?$AAI?$AAD?$AA_?$AAD?$AAI?$AAS?$AAA?$AAB?$AAL?$AAE?$AA_?$AAI?$AAN?$AAT?$AA?$AN?$AA?6?$AA?$AA@ 100043c8     fsl_rne_pdd_common_fsl_v2_pdk1_9:rndis_pdd.obj
 0001:00003404       ??_C@_1DO@PIKCPFME@?$AAP?$AAD?$AAD?$AA_?$AAS?$AAe?$AAt?$AA?3?$AAU?$AAn?$AAk?$AAn?$AAo?$AAw?$AAn?$AA?5?$AAr?$AAe?$AAq?$AAu?$AAe?$AAs?$AAt?$AA?3?$AA0?$AAx?$AA?$CF?$AAx?$AA?$AN?$AA?6?$AA?$AA@ 10004404     fsl_rne_pdd_common_fsl_v2_pdk1_9:rndis_pdd.obj
 0001:00003444       ??_C@_1CO@BKAHFHEI@?$AA?$CL?$AAR?$AAN?$AAD?$AAI?$AAS?$AA_?$AAU?$AAS?$AAB?$AAF?$AAN?$AA_?$AAP?$AAD?$AAD?$AA_?$AAS?$AAe?$AAt?$AA?$AN?$AA?6?$AA?$AA@ 10004444     fsl_rne_pdd_common_fsl_v2_pdk1_9:rndis_pdd.obj
 0001:00003474       ??_C@_1CO@MONNNOOA@?$AA?9?$AAR?$AAN?$AAD?$AAI?$AAS?$AA_?$AAU?$AAS?$AAB?$AAF?$AAN?$AA_?$AAP?$AAD?$AAD?$AA_?$AAG?$AAe?$AAt?$AA?$AN?$AA?6?$AA?$AA@ 10004474     fsl_rne_pdd_common_fsl_v2_pdk1_9:rndis_pdd.obj
 0001:000034a8       ??_C@_1EC@FCCAEHJA@?$AA?9?$AAP?$AAD?$AAD?$AA_?$AAG?$AAe?$AAt?$AA?3?$AA?5?$AAu?$AAn?$AAk?$AAn?$AAo?$AAw?$AAn?$AA?5?$AAr?$AAe?$AAq?$AAu?$AAe?$AAs?$AAt?$AA?5?$AA0?$AAx?$AA?$CF?$AAx?$AA?$AN?$AA?6@ 100044a8     fsl_rne_pdd_common_fsl_v2_pdk1_9:rndis_pdd.obj
 0001:000034ec       ??_C@_1CO@BFBJIBML@?$AA?$CL?$AAR?$AAN?$AAD?$AAI?$AAS?$AA_?$AAU?$AAS?$AAB?$AAF?$AAN?$AA_?$AAP?$AAD?$AAD?$AA_?$AAG?$AAe?$AAt?$AA?$AN?$AA?6?$AA?$AA@ 100044ec     fsl_rne_pdd_common_fsl_v2_pdk1_9:rndis_pdd.obj
 0001:00003520       ??_C@_1FO@HIPGBBGN@?$AA?9?$AAR?$AAN?$AAD?$AAI?$AAS?$AA_?$AAU?$AAS?$AAB?$AAF?$AAN?$AA_?$AAP?$AAD?$AAD?$AA_?$AAI?$AAn?$AAd?$AAi?$AAc?$AAa?$AAt?$AAe?$AAR?$AAn?$AAd?$AAi?$AAs?$AAP?$AAa@ 10004520     fsl_rne_pdd_common_fsl_v2_pdk1_9:rndis_pdd.obj
 0001:00003580       ??_C@_1FO@PLBKEBPA@?$AA?$CL?$AAR?$AAN?$AAD?$AAI?$AAS?$AA_?$AAU?$AAS?$AAB?$AAF?$AAN?$AA_?$AAP?$AAD?$AAD?$AA_?$AAI?$AAn?$AAd?$AAi?$AAc?$AAa?$AAt?$AAe?$AAR?$AAn?$AAd?$AAi?$AAs?$AAP?$AAa@ 10004580     fsl_rne_pdd_common_fsl_v2_pdk1_9:rndis_pdd.obj
 0001:000035e0       ??_C@_1DG@LOIHLLKG@?$AAR?$AAN?$AAD?$AAI?$AAS?$AA?5?$AAS?$AAe?$AAr?$AAi?$AAa?$AAl?$AA?5?$AAN?$AAu?$AAm?$AAb?$AAe?$AAr?$AA?$DN?$AA?$FL?$AA?$CF?$AAs?$AA?$FN?$AA?$AN?$AA?6?$AA?$AA@ 100045e0     fsl_rne_pdd_common_fsl_v2_pdk1_9:rndis_pdd.obj
 0001:00003618       ??_C@_1FM@FDJOONCJ@?$AAG?$AAo?$AAt?$AA?5?$AAS?$AAE?$AAT?$AAU?$AAP?$AA?5?$AA?$DM?$AAN?$AAO?$AA?5?$AAD?$AAA?$AAT?$AAA?$AA?3?$AA?5?$AA?$CF?$AAx?$AA?5?$AA?$CF?$AAx?$AA?5?$AA?$CF?$AAx?$AA?5?$AA?$CF?$AAx?$AA?5@ 10004618     fsl_rne_pdd_common_fsl_v2_pdk1_9:rndis_pdd.obj
 0001:00003674       ??_C@_1DA@MJLPENBD@?$AAG?$AAo?$AAt?$AA?5?$AAS?$AAE?$AAT?$AAU?$AAP?$AA?5?$AAO?$AAU?$AAT?$AA?5?$AAp?$AAa?$AAc?$AAk?$AAe?$AAt?$AA?4?$AA?$AN?$AA?6?$AA?$AA@ 10004674     fsl_rne_pdd_common_fsl_v2_pdk1_9:rndis_pdd.obj
 0001:000036a4       ??_C@_1CM@NHNGDKFM@?$AAG?$AAo?$AAt?$AA?5?$AAS?$AAE?$AAT?$AAU?$AAP?$AA?5?$AAI?$AAN?$AA?5?$AAp?$AAa?$AAc?$AAk?$AAe?$AAt?$AA?$AN?$AA?6?$AA?$AA@ 100046a4     fsl_rne_pdd_common_fsl_v2_pdk1_9:rndis_pdd.obj
 0001:000036d0       ??_C@_1DK@CJOHLCDF@?$AAE?$AAR?$AAR?$AAO?$AAR?$AA?5?$AAP?$AAA?$AAR?$AAS?$AAI?$AAN?$AAG?$AA?5?$AAS?$AAE?$AAT?$AAU?$AAP?$AA?5?$AAP?$AAA?$AAC?$AAK?$AAE?$AAT?$AA?$AN?$AA?6?$AA?$AA@ 100046d0     fsl_rne_pdd_common_fsl_v2_pdk1_9:rndis_pdd.obj
 0001:0000370c       ??_C@_1DO@PFNPIHHC@?$AAU?$AAn?$AAe?$AAx?$AAp?$AAe?$AAc?$AAt?$AAe?$AAd?$AA?5?$AAE?$AAP?$AA2?$AA?5?$AAt?$AAr?$AAa?$AAn?$AAs?$AAf?$AAe?$AAr?$AA?5?$AAs?$AAt?$AAa?$AAt?$AAe?$AA?$CB?$AA?$AA@ 1000470c     fsl_rne_pdd_common_fsl_v2_pdk1_9:rndis_pdd.obj
 0001:00003750       ??_C@_1EG@NEPEKMDB@?$AAS?$AAe?$AAn?$AAd?$AAP?$AAa?$AAc?$AAk?$AAe?$AAt?$AA?5?$AAN?$AAU?$AAL?$AAL?$AA?5?$AAt?$AAe?$AAr?$AAm?$AAi?$AAn?$AAa?$AAt?$AAo?$AAr?$AA?5?$AAs?$AAe?$AAn?$AAt?$AA?$CB@ 10004750     fsl_rne_pdd_common_fsl_v2_pdk1_9:rndis_pdd.obj
 0001:00003798       ??_C@_1FI@KOMJGPLF@?$AAS?$AAe?$AAn?$AAd?$AAi?$AAn?$AAg?$AA?5?$AAN?$AAU?$AAL?$AAL?$AA?5?$AAt?$AAe?$AAr?$AAm?$AAi?$AAn?$AAa?$AAt?$AAo?$AAr?$AA?5?$AAf?$AAo?$AAr?$AA?5?$AAt?$AAh?$AAe?$AA?5@ 10004798     fsl_rne_pdd_common_fsl_v2_pdk1_9:rndis_pdd.obj
 0001:000037f0       ??_C@_1EA@ODINLGJJ@?$AAR?$AAe?$AAc?$AAe?$AAi?$AAv?$AAe?$AAd?$AA?5?$AAa?$AA?5?$AAp?$AAa?$AAc?$AAk?$AAe?$AAt?$AA?5?$AA?$FL?$AA?$CF?$AAd?$AA?5?$AAb?$AAy?$AAt?$AAe?$AAs?$AA?$FN?$AA?$CB?$AA?$AN?$AA?6?$AA?$AA@ 100047f0     fsl_rne_pdd_common_fsl_v2_pdk1_9:rndis_pdd.obj
 0001:00003830       ??_C@_1CM@FNJKEBIB@?$AAR?$AAe?$AAc?$AAe?$AAi?$AAv?$AAe?$AAd?$AA?5?$AAa?$AA?5?$AAm?$AAe?$AAs?$AAs?$AAa?$AAg?$AAe?$AA?$CB?$AA?$AN?$AA?6?$AA?$AA@ 10004830     fsl_rne_pdd_common_fsl_v2_pdk1_9:rndis_pdd.obj
 0001:0000385c       ??_C@_1CO@MJKBFNNP@?$AAD?$AAo?$AAn?$AAe?$AA?5?$AAr?$AAe?$AAc?$AAe?$AAi?$AAv?$AAi?$AAn?$AAg?$AA?5?$AAd?$AAa?$AAt?$AAa?$AA?4?$AA?$AN?$AA?6?$AA?$AA@ 1000485c     fsl_rne_pdd_common_fsl_v2_pdk1_9:rndis_pdd.obj
 0001:00003890       ??_C@_1EC@LJDGALBJ@?$AAS?$AAe?$AAn?$AAd?$AAM?$AAe?$AAs?$AAs?$AAa?$AAg?$AAe?$AA?5?$AAr?$AAe?$AAq?$AAu?$AAe?$AAs?$AAt?$AA?5?$AAc?$AAo?$AAm?$AAp?$AAl?$AAe?$AAt?$AAe?$AAd?$AA?$CB?$AA?$AN?$AA?6@ 10004890     fsl_rne_pdd_common_fsl_v2_pdk1_9:rndis_pdd.obj
 0001:000038d4       ??_C@_1CK@FEGGBLDE@?$AAD?$AAo?$AAn?$AAe?$AA?5?$AAs?$AAe?$AAn?$AAd?$AAi?$AAn?$AAg?$AA?5?$AAd?$AAa?$AAt?$AAa?$AA?4?$AA?$AN?$AA?6?$AA?$AA@ 100048d4     fsl_rne_pdd_common_fsl_v2_pdk1_9:rndis_pdd.obj
 0001:00003900       ??_C@_1CO@MPAJKINN@?$AA?9?$AAR?$AAN?$AAD?$AAI?$AAS?$AA_?$AAU?$AAS?$AAB?$AAF?$AAN?$AA_?$AAP?$AAD?$AAD?$AAI?$AAn?$AAi?$AAt?$AA?$AN?$AA?6?$AA?$AA@ 10004900     fsl_rne_pdd_common_fsl_v2_pdk1_9:rndis_pdd.obj
 0001:00003930       ??_C@_1GC@COEDNCDC@?$AA?5?$AAR?$AAN?$AAD?$AAI?$AAS?$AA_?$AAU?$AAS?$AAB?$AAF?$AAN?$AA_?$AAP?$AAD?$AAD?$AAI?$AAn?$AAi?$AAt?$AA?3?$AA?5?$AAi?$AAn?$AAi?$AAt?$AAi?$AAa?$AAl?$AAi?$AAz?$AAa@ 10004930     fsl_rne_pdd_common_fsl_v2_pdk1_9:rndis_pdd.obj
 0001:00003994       ??_C@_1CM@CGCNDLMD@?$AAU?$AAf?$AAn?$AAP?$AAd?$AAd?$AA_?$AAI?$AAn?$AAi?$AAt?$AA?5?$AAf?$AAa?$AAi?$AAl?$AAe?$AAd?$AA?$CB?$AA?$AN?$AA?6?$AA?$AA@ 10004994     fsl_rne_pdd_common_fsl_v2_pdk1_9:rndis_pdd.obj
 0001:000039c0       ??_C@_1BC@GDFGLIEL@?$AAO?$AAT?$AAG?$AAG?$AAr?$AAo?$AAu?$AAp?$AA?$AA@ 100049c0     usb_usbfn_mx28_fsl_v2_pdk1_9:i_pdd.obj
 0001:000039d4       ??_C@_1BG@HHFAGDDC@?$AAO?$AAT?$AAG?$AAS?$AAu?$AAp?$AAp?$AAo?$AAr?$AAt?$AA?$AA@ 100049d4     usb_usbfn_mx28_fsl_v2_pdk1_9:i_pdd.obj
 0001:000039ec       ??_C@_1BI@BHLBGEOK@?$AAP?$AAr?$AAi?$AAo?$AAr?$AAi?$AAt?$AAy?$AA2?$AA5?$AA6?$AA?$AA@ 100049ec     usb_usbfn_mx28_fsl_v2_pdk1_9:i_pdd.obj
 0001:00003a04       ??_C@_17DJGGJCGD@?$AAI?$AAr?$AAq?$AA?$AA@ 10004a04     usb_usbfn_mx28_fsl_v2_pdk1_9:i_pdd.obj
 0001:00003a0c       ??_C@_1O@LBBNFMDB@?$AAM?$AAe?$AAm?$AAL?$AAe?$AAn?$AA?$AA@ 10004a0c     usb_usbfn_mx28_fsl_v2_pdk1_9:i_pdd.obj
 0001:00003a1c       ??_C@_1BA@INLDIDEN@?$AAM?$AAe?$AAm?$AAB?$AAa?$AAs?$AAe?$AA?$AA@ 10004a1c     usb_usbfn_mx28_fsl_v2_pdk1_9:i_pdd.obj
 0001:00003b50       ??_C@_1BM@LGGJJGMB@?$AAP?$AAr?$AAi?$AAm?$AAe?$AAF?$AAZ?$AAL?$AAT?$AA?3?$AA?5?$AA?$CF?$AAs?$AA?$AA@ 10004b50     usb_usbfn_mx28_fsl_v2_pdk1_9:i_pdd.obj
 0001:00003b6c       ??_C@_17HCEMPBGG@?$AAO?$AAU?$AAT?$AA?$AA@ 10004b6c     usb_usbfn_mx28_fsl_v2_pdk1_9:i_pdd.obj
 0001:00003b74       ??_C@_15BNKBCKPG@?$AAI?$AAN?$AA?$AA@ 10004b74     usb_usbfn_mx28_fsl_v2_pdk1_9:i_pdd.obj
 0001:00003b80       ??_C@_1EA@GOCNCOIC@?$AAI?$AAs?$AAs?$AAu?$AAe?$AAT?$AAr?$AAa?$AAn?$AAs?$AAf?$AAe?$AAr?$AA?3?$AA?5?$AA?$CF?$AAs?$AA?5?$AAw?$AAi?$AAt?$AAh?$AA?5?$AA?$CF?$AAd?$AA?5?$AAb?$AAy?$AAt?$AAe?$AAs?$AA?$AA@ 10004b80     usb_usbfn_mx28_fsl_v2_pdk1_9:i_pdd.obj
 0001:00003bc0       ??_C@_1DA@JMEFNML@?$AAA?$AAb?$AAo?$AAr?$AAt?$AAT?$AAr?$AAa?$AAn?$AAs?$AAf?$AAe?$AAr?$AA?5?$AA?$CI?$AA?$CF?$AAs?$AA?5?$AAE?$AAP?$AA?$CF?$AAd?$AA?$CJ?$AA?$AA@ 10004bc0     usb_usbfn_mx28_fsl_v2_pdk1_9:i_pdd.obj
 0001:00003bf0       ??_C@_19CIJIHAKK@?$AAN?$AAU?$AAL?$AAL?$AA?$AA@ 10004bf0     usb_usbfn_mx28_fsl_v2_pdk1_9:i_pdd.obj
 0001:00003bfc       ??_C@_1CA@HMLLGPGC@?$AA?9?$AAS?$AAe?$AAn?$AAd?$AAC?$AAS?$AAH?$AA?5?$AA?$CI?$AAE?$AAP?$AA?$CF?$AAd?$AA?$CJ?$AA?$AA@ 10004bfc     usb_usbfn_mx28_fsl_v2_pdk1_9:i_pdd.obj
 0001:00003c1c       ??_C@_1CA@DFPEHIFN@?$AA?$CL?$AAS?$AAe?$AAn?$AAd?$AAC?$AAS?$AAH?$AA?5?$AA?$CI?$AAE?$AAP?$AA?$CF?$AAd?$AA?$CJ?$AA?$AA@ 10004c1c     usb_usbfn_mx28_fsl_v2_pdk1_9:i_pdd.obj
 0001:00003c40       ??_C@_1GG@IILKAMAB@?$AAU?$AAS?$AAB?$AA?5?$AAD?$AAr?$AAi?$AAv?$AAe?$AAr?$AA?5?$AAl?$AAo?$AAa?$AAd?$AA?5?$AAf?$AAa?$AAi?$AAl?$AAu?$AAr?$AAe?$AA?5?$AAb?$AAe?$AAc?$AAa?$AAu?$AAs?$AAe?$AA?5@ 10004c40     usb_usbfn_mx28_fsl_v2_pdk1_9:i_pdd.obj
 0001:00003ca8       ??_C@_1CI@HKDMKLGF@?$AAD?$AAe?$AAt?$AAa?$AAc?$AAh?$AA?3?$AA?5?$AAP?$AAO?$AAR?$AAT?$AAS?$AAC?$AA?5?$AA0?$AAx?$AA?$CF?$AAx?$AA?$AA@ 10004ca8     usb_usbfn_mx28_fsl_v2_pdk1_9:i_pdd.obj
 0001:00003cd0       ??_C@_1O@BJIMCIMK@?$AAR?$AAe?$AAs?$AAu?$AAm?$AAe?$AA?$AA@ 10004cd0     usb_usbfn_mx28_fsl_v2_pdk1_9:i_pdd.obj
 0001:00003ce0       ??_C@_1BE@JNFMNJIM@?$AAI?$AAn?$AAt?$AAr?$AA?3?$AAD?$AAo?$AAn?$AAe?$AA?$AA@ 10004ce0     usb_usbfn_mx28_fsl_v2_pdk1_9:i_pdd.obj
 0001:00003cf4       ??_C@_1BO@EGKDOEEI@?$AAI?$AAn?$AAt?$AAr?$AA?3?$AAS?$AAi?$AAg?$AAn?$AAa?$AAl?$AAl?$AAe?$AAd?$AA?$AA@ 10004cf4     usb_usbfn_mx28_fsl_v2_pdk1_9:i_pdd.obj
 0001:00003e38       ??_C@_1DM@LHGMNDOM@?$AA?9?$AAE?$AAN?$AAE?$AAT?$AAI?$AAn?$AAi?$AAt?$AAD?$AAM?$AAA?$AAB?$AAu?$AAf?$AAf?$AAe?$AAr?$AA?$CI?$AAr?$AAc?$AA?5?$AA?$DN?$AA?5?$AA?$CF?$AAd?$AA?$CJ?$AA?$AN?$AA?6?$AA?$AA@ 10004e38     oal_ethdrv_enet_common_fsl_v2_pdk1_9:enet.obj
 0001:00003e78       ??_C@_1GC@ELENNKDL@?$AAE?$AAR?$AAR?$AAO?$AAR?$AA?3?$AA?5?$AAE?$AAN?$AAE?$AAT?$AAI?$AAn?$AAi?$AAt?$AAD?$AAM?$AAA?$AAB?$AAu?$AAf?$AAf?$AAe?$AAr?$AA?3?$AA?5?$AAD?$AAM?$AAA?$AA?5?$AAB?$AAu@ 10004e78     oal_ethdrv_enet_common_fsl_v2_pdk1_9:enet.obj
 0001:00003edc       ??_C@_0CJ@LMGPHNDC@ENETInitDMABuffer?5DMA?5Buffer?5too@ 10004edc     oal_ethdrv_enet_common_fsl_v2_pdk1_9:enet.obj
 0001:00003f08       ??_C@_1EC@PEBDIOBH@?$AA?$CL?$AAE?$AAN?$AAE?$AAT?$AAI?$AAn?$AAi?$AAt?$AAD?$AAM?$AAA?$AAB?$AAu?$AAf?$AAf?$AAe?$AAr?$AA?$CI?$AA0?$AAx?$AA?$CF?$AAX?$AA?0?$AA?5?$AA0?$AAx?$AA?$CF?$AAX?$AA?$CJ?$AA?$AN?$AA?6@ 10004f08     oal_ethdrv_enet_common_fsl_v2_pdk1_9:enet.obj
 0001:00003f4c       ??_C@_1CK@JBLIMCJG@?$AA?9?$AAE?$AAN?$AAE?$AAT?$AAI?$AAn?$AAi?$AAt?$AA?$CI?$AAr?$AAc?$AA?5?$AA?$DN?$AA?5?$AA?$CF?$AAd?$AA?$CJ?$AA?$AN?$AA?6?$AA?$AA@ 10004f4c     oal_ethdrv_enet_common_fsl_v2_pdk1_9:enet.obj
 0001:00003f78       ??_C@_0CB@DFINIDFK@Failed?5to?5get?5the?5external?5PHY?$AN?6@ 10004f78     oal_ethdrv_enet_common_fsl_v2_pdk1_9:enet.obj
 0001:00003f9c       ??_C@_0DB@IOFINMK@ENET?5is?5linked?0?5?5Speed?5?5100Mbps?5@ 10004f9c     oal_ethdrv_enet_common_fsl_v2_pdk1_9:enet.obj
 0001:00003fd0       ??_C@_0DB@HALPMOKJ@ENET?5is?5linked?0?5?5Speed?5?5100Mbps?5@ 10004fd0     oal_ethdrv_enet_common_fsl_v2_pdk1_9:enet.obj
 0001:00004004       ??_C@_0DA@PAOBKGEA@ENET?5is?5linked?0?5?5Speed?5?510Mbps?5?0@ 10005004     oal_ethdrv_enet_common_fsl_v2_pdk1_9:enet.obj
 0001:00004034       ??_C@_0DA@IILLOFCD@ENET?5is?5linked?0?5?5Speed?5?510Mbps?5?0@ 10005034     oal_ethdrv_enet_common_fsl_v2_pdk1_9:enet.obj
 0001:00004064       ??_C@_0CC@HADIKNLB@ENET?5is?5linked?0?5?5Speed?5?510Mbps?5?$AN@ 10005064     oal_ethdrv_enet_common_fsl_v2_pdk1_9:enet.obj
 0001:00004088       ??_C@_0O@KMFLMLGE@Half?5Duplex?$AN?6?$AA@ 10005088     oal_ethdrv_enet_common_fsl_v2_pdk1_9:enet.obj
 0001:00004098       ??_C@_0O@PBNBAKCM@Full?5Duplex?$AN?6?$AA@ 10005098     oal_ethdrv_enet_common_fsl_v2_pdk1_9:enet.obj
 0001:000040a8       ??_C@_0CC@NCBAAEBD@ENET?5is?5linked?0?5Speed?5?5100Mbps?5?$AN@ 100050a8     oal_ethdrv_enet_common_fsl_v2_pdk1_9:enet.obj
 0001:000040d0       ??_C@_1EM@PFHKNHEN@?$AAT?$AAh?$AAe?$AA?5?$AAn?$AAa?$AAm?$AAe?$AA?5?$AAf?$AAo?$AAr?$AA?5?$AAt?$AAh?$AAe?$AA?5?$AAe?$AAx?$AAt?$AAe?$AAr?$AAn?$AAa?$AAl?$AA?5?$AAP?$AAH?$AAY?$AA?5?$AAi?$AAs@ 100050d0     oal_ethdrv_enet_common_fsl_v2_pdk1_9:enet.obj
 0001:0000411c       ??_C@_1DM@JAMGJIED@?$AAM?$AAI?$AAI?$AA_?$AAR?$AAE?$AAG?$AA_?$AAP?$AAH?$AAY?$AAI?$AAR?$AA2?$AA?5?$AAR?$AAE?$AAA?$AAD?$AA?5?$AAF?$AAa?$AAi?$AAl?$AAe?$AAd?$AA?5?$AA?$AN?$AA?6?$AA?$AA@ 1000511c     oal_ethdrv_enet_common_fsl_v2_pdk1_9:enet.obj
 0001:00004158       ??_C@_0BN@LLCGJIBH@Bad?5MMI?5read?0?5continue?5?4?4?4?$AN?6?$AA@ 10005158     oal_ethdrv_enet_common_fsl_v2_pdk1_9:enet.obj
 0001:00004178       ??_C@_1HE@MGJOOLNA@?$AAE?$AAN?$AAE?$AAT?$AAI?$AAn?$AAi?$AAt?$AA?$CI?$AA0?$AAx?$AA?$CF?$AA0?$AA8?$AAx?$AA?0?$AA?5?$AA0?$AAx?$AA?$CF?$AA0?$AA8?$AAx?$AA?0?$AA?5?$AA?$CF?$AA0?$AA2?$AAx?$AA?3?$AA?$CF?$AA0@ 10005178     oal_ethdrv_enet_common_fsl_v2_pdk1_9:enet.obj
 0001:000041ec       ??_C@_0CG@MPJEJDJL@ENETInit?5MAC?5ADDR?5?$CFx?3?$CFx?3?$CFx?3?$CFx?3?$CFx@ 100051ec     oal_ethdrv_enet_common_fsl_v2_pdk1_9:enet.obj
 0001:00004218       ??_C@_1EK@HGEJEABN@?$AAE?$AAR?$AAR?$AAO?$AAR?$AA?3?$AA?5?$AAE?$AAN?$AAE?$AAT?$AAS?$AAe?$AAn?$AAd?$AAF?$AAr?$AAa?$AAm?$AAe?$AA?3?$AA?5?$AAS?$AAe?$AAn?$AAd?$AA?5?$AAt?$AAi?$AAm?$AAe?$AAo@ 10005218     oal_ethdrv_enet_common_fsl_v2_pdk1_9:enet.obj
 0001:00004268       ??_C@_1EC@NIMKHHMM@?$AA?9?$AAE?$AAN?$AAE?$AAT?$AAG?$AAe?$AAt?$AAF?$AAr?$AAa?$AAm?$AAe?$AA?$CI?$AAP?$AAa?$AAc?$AAk?$AAe?$AAt?$AAS?$AAi?$AAz?$AAe?$AA?5?$AA?$DN?$AA?5?$AA?$CF?$AAd?$AA?$CJ?$AA?$AN?$AA?6@ 10005268     oal_ethdrv_enet_common_fsl_v2_pdk1_9:enet.obj
 0001:000042ac       ??_C@_1DI@OBCDEHIK@?$AA?$CL?$AAE?$AAN?$AAE?$AAT?$AAG?$AAe?$AAt?$AAF?$AAr?$AAa?$AAm?$AAe?$AA?$CI?$AA0?$AAx?$AA?$CF?$AA0?$AA8?$AAx?$AA?0?$AA?5?$AA?$CF?$AAd?$AA?$CJ?$AA?$AN?$AA?6?$AA?$AA@ 100052ac     oal_ethdrv_enet_common_fsl_v2_pdk1_9:enet.obj
 0001:000042e4       ??_C@_1DG@NEDFBDKH@?$AA?9?$AAE?$AAN?$AAE?$AAT?$AAC?$AAu?$AAr?$AAr?$AAe?$AAn?$AAt?$AAP?$AAa?$AAc?$AAk?$AAe?$AAt?$AAF?$AAi?$AAl?$AAt?$AAe?$AAr?$AA?$AN?$AA?6?$AA?$AA@ 100052e4     oal_ethdrv_enet_common_fsl_v2_pdk1_9:enet.obj
 0001:00004320       ??_C@_1EG@BNDMLHAB@?$AA?$CL?$AAE?$AAN?$AAE?$AAT?$AAC?$AAu?$AAr?$AAr?$AAe?$AAn?$AAt?$AAP?$AAa?$AAc?$AAk?$AAe?$AAt?$AAF?$AAi?$AAl?$AAt?$AAe?$AAr?$AA?$CI?$AA0?$AAx?$AA?$CF?$AA0?$AA8?$AAx?$AA?$CJ@ 10005320     oal_ethdrv_enet_common_fsl_v2_pdk1_9:enet.obj
 0001:00004368       ??_C@_1DK@PKCLMALG@?$AA?9?$AAE?$AAN?$AAE?$AAT?$AAM?$AAu?$AAl?$AAt?$AAi?$AAc?$AAa?$AAs?$AAt?$AAL?$AAi?$AAs?$AAt?$AA?$CI?$AAr?$AAc?$AA?5?$AA?$DN?$AA?5?$AA1?$AA?$CJ?$AA?$AN?$AA?6?$AA?$AA@ 10005368     oal_ethdrv_enet_common_fsl_v2_pdk1_9:enet.obj
 0001:000043a8       ??_C@_1EC@BNFJLDJE@?$AA?$CL?$AAE?$AAN?$AAE?$AAT?$AAM?$AAu?$AAl?$AAt?$AAi?$AAc?$AAa?$AAs?$AAt?$AAL?$AAi?$AAs?$AAt?$AA?$CI?$AA0?$AAx?$AA?$CF?$AA0?$AA8?$AAx?$AA?0?$AA?5?$AA?$CF?$AAd?$AA?$CJ?$AA?$AN?$AA?6@ 100053a8     oal_ethdrv_enet_common_fsl_v2_pdk1_9:enet.obj
 0001:000043f0       ??_C@_1GA@DBGLAADC@?$AAE?$AAR?$AAR?$AAO?$AAR?$AA?3?$AA?5?$AAP?$AAD?$AAD?$AA?5?$AAc?$AAa?$AAn?$AAn?$AAo?$AAt?$AA?5?$AAs?$AAu?$AAp?$AAp?$AAo?$AAr?$AAt?$AA?5?$AAl?$AAo?$AAg?$AAi?$AAc?$AAa@ 100053f0     fsl_serial_pdd_common_fsl_v2_pdk1_9:serial_dl.obj
 0001:00004450       ??_C@_1CG@HDEJOBAB@?$AAM?$AAa?$AAp?$AAp?$AAi?$AAn?$AAg?$AA?5?$AA?$CF?$AAd?$AA?5?$AAt?$AAo?$AA?5?$AA?$CF?$AAd?$AA?$AN?$AA?6?$AA?$AA@ 10005450     fsl_serial_pdd_common_fsl_v2_pdk1_9:serial_dl.obj
 0001:00004478       ??_C@_1EO@JLDEGKNA@?$AAE?$AAR?$AAR?$AAO?$AAR?$AA?3?$AA?5?$AAP?$AAD?$AAD?$AA?5?$AAc?$AAa?$AAn?$AAn?$AAo?$AAt?$AA?5?$AAs?$AAu?$AAp?$AAp?$AAo?$AAr?$AAt?$AA?5?$AAe?$AAn?$AAd?$AAp?$AAo?$AAi@ 10005478     fsl_serial_pdd_common_fsl_v2_pdk1_9:serial_dl.obj
 0001:000044c8       ??_C@_1IK@NBNIIDPB@?$AAE?$AAR?$AAR?$AAO?$AAR?$AA?3?$AA?5?$AAP?$AAD?$AAD?$AA?5?$AAI?$AAn?$AAd?$AAi?$AAc?$AAa?$AAt?$AAe?$AAd?$AA?5?$AAt?$AAh?$AAe?$AAr?$AAe?$AA?5?$AAw?$AAa?$AAs?$AA?5?$AAa@ 100054c8     fsl_serial_pdd_common_fsl_v2_pdk1_9:serial_dl.obj
 0001:00004558       ??_C@_1HE@HCMHOHD@?$AAE?$AAR?$AAR?$AAO?$AAR?$AA?3?$AA?5?$AAP?$AAD?$AAD?$AA?5?$AAI?$AAn?$AAd?$AAi?$AAc?$AAa?$AAt?$AAe?$AAd?$AA?5?$AAt?$AAh?$AAe?$AAr?$AAe?$AA?5?$AAw?$AAa?$AAs?$AA?5?$AAa@ 10005558     fsl_serial_pdd_common_fsl_v2_pdk1_9:serial_dl.obj
 0001:000045d0       ??_C@_1GC@EHFCFLNO@?$AAE?$AAR?$AAR?$AAO?$AAR?$AA?3?$AA?5?$AAS?$AAe?$AAn?$AAt?$AA?5?$AAd?$AAa?$AAt?$AAa?$AA?5?$AAd?$AAo?$AAe?$AAs?$AA?5?$AAn?$AAo?$AAt?$AA?5?$AAm?$AAa?$AAt?$AAc?$AAh?$AA?5@ 100055d0     fsl_serial_pdd_common_fsl_v2_pdk1_9:serial_dl.obj
 0001:00004638       ??_C@_1JG@LFGGGOHE@?$AAE?$AAR?$AAR?$AAO?$AAR?$AA?3?$AA?5?$AAP?$AAD?$AAD?$AA?5?$AAI?$AAn?$AAd?$AAi?$AAc?$AAa?$AAt?$AAe?$AAd?$AA?5?$AAR?$AAE?$AAC?$AAV?$AA?5?$AAc?$AAo?$AAm?$AAp?$AAl?$AAe@ 10005638     fsl_serial_pdd_common_fsl_v2_pdk1_9:serial_dl.obj
 0001:000046d0       ??_C@_1HE@OMBLMFHA@?$AAE?$AAR?$AAR?$AAO?$AAR?$AA?3?$AA?5?$AAP?$AAD?$AAD?$AA?5?$AAI?$AAn?$AAd?$AAi?$AAc?$AAa?$AAt?$AAe?$AAd?$AA?5?$AAt?$AAh?$AAe?$AAr?$AAe?$AA?5?$AAw?$AAa?$AAs?$AA?5?$AAa@ 100056d0     fsl_serial_pdd_common_fsl_v2_pdk1_9:serial_dl.obj
 0001:00004744       ??_C@_1CO@ONOPPKFD@?$AAG?$AAo?$AAt?$AA?5?$AAS?$AAE?$AAT?$AAU?$AAP?$AA?5?$AAO?$AAU?$AAT?$AA?5?$AAp?$AAa?$AAc?$AAk?$AAe?$AAt?$AA?$AN?$AA?6?$AA?$AA@ 10005744     fsl_serial_pdd_common_fsl_v2_pdk1_9:serial_dl.obj
 0001:00004774       ??_C@_1CI@OLENNHLD@?$AAU?$AAf?$AAn?$AAP?$AAd?$AAd?$AA_?$AAI?$AAn?$AAi?$AAt?$AA?5?$AAf?$AAa?$AAi?$AAl?$AAe?$AAd?$AA?$CB?$AA?$AA@ 10005774     fsl_serial_pdd_common_fsl_v2_pdk1_9:serial_dl.obj
 0001:000047a0       ??_C@_1HG@HALKJNKP@?$AAE?$AAR?$AAR?$AAO?$AAR?$AA?3?$AA?5?$AAU?$AAS?$AAB?$AAS?$AAe?$AAr?$AAi?$AAa?$AAl?$AAI?$AAn?$AAi?$AAt?$AA?5?$AAc?$AAa?$AAl?$AAl?$AAe?$AAd?$AA?5?$AAa?$AAg?$AAa?$AAi@ 100057a0     fsl_serial_pdd_common_fsl_v2_pdk1_9:serial_dl.obj
 0001:00004818       ??_C@_1GM@JEDJFMFC@?$AAE?$AAR?$AAR?$AAO?$AAR?$AA?3?$AA?5?$AAO?$AAE?$AAM?$AAS?$AAe?$AAr?$AAi?$AAa?$AAl?$AAS?$AAe?$AAn?$AAd?$AAR?$AAa?$AAw?$AA?5?$AAc?$AAa?$AAl?$AAl?$AAe?$AAd?$AA?5?$AAb@ 10005818     fsl_serial_pdd_common_fsl_v2_pdk1_9:serial_dl.obj
 0001:00004884       ??_C@_0DG@ODLBGEPM@ERROR?3?5OEMSerialRecvRaw?5called?5b@ 10005884     fsl_serial_pdd_common_fsl_v2_pdk1_9:serial_dl.obj
 0001:00004a9c       OEMKitlStartup             10005a9c f   kitl.obj
 0001:00004d10       IsDesktopDbgrExist         10005d10 f   kitlcore:ethdbg.obj
 0001:00004dcc       ChkDfltSvc                 10005dcc f   kitlcore:ethdbg.obj
 0001:0000501c       KITLDeregisterClient       1000601c f   kitlcore:ethdbg.obj
 0001:000052d4       KITLWriteDebugString       100062d4 f   kitlcore:ethdbg.obj
 0001:0000580c       KITLInitializeInterrupt    1000680c f   kitlcore:ethdbg.obj
 0001:00005984       KITLRegisterDfltClient     10006984 f   kitlcore:ethdbg.obj
 0001:00005c98       KitlInit                   10006c98 f   kitlcore:ethdbg.obj
 0001:00005cf4       KITLRegisterClient         10006cf4 f   kitlcore:ethdbg.obj
 0001:00005f18       ExtKITLIoctl               10006f18 f   kitlcore:ethdbg.obj
 0001:000062b4       KITLIoctl                  100072b4 f   kitlcore:ethdbg.obj
 0001:00006530       KitlDllMain                10007530 f   kitlcore:ethdbg.obj
 0001:0000685c       KITLOutputDebugString      1000785c f   kitlcore:debug.obj
 0001:000068f8       InitTimerList              100078f8 f   kitlcore:timer.obj
 0001:00006934       FreeTimerEntry             10007934 f   kitlcore:timer.obj
 0001:0000698c       TimerCallback              1000798c f   kitlcore:timer.obj
 0001:00006b5c       TimerStart                 10007b5c f   kitlcore:timer.obj
 0001:00006c40       TimerStop                  10007c40 f   kitlcore:timer.obj
 0001:00006d38       CancelTimersForClient      10007d38 f   kitlcore:timer.obj
 0001:00006d88       KitlSetTimerCallback       10007d88 f   kitlcore:timer.obj
 0001:00006e34       TimerThread                10007e34 f   kitlcore:timer.obj
 0001:00006fcc       DoDebugBreak               10007fcc f   kitlcore:edbgprot.obj
 0001:00006fd4       ResetClientState           10007fd4 f   kitlcore:edbgprot.obj
 0001:00007090       KitlSendRawData            10008090 f   kitlcore:edbgprot.obj
 0001:00007158       KitlSendFrame              10008158 f   kitlcore:edbgprot.obj
 0001:000071c8       SendConfig                 100081c8 f   kitlcore:edbgprot.obj
 0001:00007308       RetransmitFrame            10008308 f   kitlcore:edbgprot.obj
 0001:00007d6c       HandleRecvInterrupt        10008d6c f   kitlcore:edbgprot.obj
 0001:00007eec       KITLPollResponse           10008eec f   kitlcore:edbgprot.obj
 0001:0000804c       ExchangeConfig             1000904c f   kitlcore:edbgprot.obj
 0001:00008150       KITLSend                   10009150 f   kitlcore:edbgprot.obj
 0001:0000876c       KITLRecv                   1000976c f   kitlcore:edbgprot.obj
 0001:00008b20       NKDbgPrintfW               10009b20 f   nkstub:nkstub.obj
 0001:00008b54       NKwvsprintfW               10009b54 f   nkstub:nkstub.obj
 0001:00008b78       NKSetLastError             10009b78 f   nkstub:nkstub.obj
 0001:00008b9c       NKGetLastError             10009b9c f   nkstub:nkstub.obj
 0001:00008bc0       EnterCriticalSection       10009bc0 f   nkstub:nkstub.obj
 0001:00008be4       LeaveCriticalSection       10009be4 f   nkstub:nkstub.obj
 0001:00008c08       InitializeCriticalSection  10009c08 f   nkstub:nkstub.obj
 0001:00008c2c       DeleteCriticalSection      10009c2c f   nkstub:nkstub.obj
 0001:00008c50       INTERRUPTS_OFF             10009c50 f   nkstub:nkstub.obj
 0001:00008c74       NKSetInterruptEvent        10009c74 f   nkstub:nkstub.obj
 0001:00008c98       NKSleep                    10009c98 f   nkstub:nkstub.obj
 0001:00008cbc       NKCreateStaticMapping      10009cbc f   nkstub:nkstub.obj
 0001:00008ce0       NKForceCleanBoot           10009ce0 f   nkstub:nkstub.obj
 0001:00008d04       NKUnicodeToAscii           10009d04 f   nkstub:nkstub.obj
 0001:00008d28       NKPhysToVirt               10009d28 f   nkstub:nkstub.obj
 0001:00008d4c       NKVirtToPhys               10009d4c f   nkstub:nkstub.obj
 0001:00008d70       __report_gsfailure         10009d70 f   nkstub:nkstub.obj
 0001:00008d94       OEMWriteDebugByte          10009d94 f   oemstub:oemstub.obj
 0001:00008db8       OEMWriteDebugString        10009db8 f   oemstub:oemstub.obj
 0001:00008ddc       OEMGetTickCount            10009ddc f   oemstub:oemstub.obj
 0001:00008e00       OEMInterruptEnable         10009e00 f   oemstub:oemstub.obj
 0001:00008e24       OEMIoControl               10009e24 f   oemstub:oemstub.obj
 0001:00008e7c       OALKitlInit                10009e7c f   oal_kitl:kitl.obj
 0001:00009104       OALKitlPowerOff            1000a104 f   oal_kitl:kitl.obj
 0001:0000919c       OALKitlPowerOn             1000a19c f   oal_kitl:kitl.obj
 0001:00009228       OEMKitlInit                1000a228 f   oal_kitl:kitl.obj
 0001:000092e0       OALKitlCreateName          1000a2e0 f   oal_kitl:name.obj
 0001:00009418       OEMKitlIoctl               1000a418 f   oal_kitl:kitlioctl.obj
 0001:00009440       OALKitlFindDevice          1000a440 f   oal_kitl:device.obj
 0001:000095d8       OALKitlIPtoString          1000a5d8 f   oal_kitl:format.obj
 0001:00009b68       OALKitlSerialInit          1000ab68 f   oal_kitl:kitlserial.obj
 0001:0000a950       DecodeIP                   1000b950 f   oal_kitl:kitleth.obj
 0001:0000b04c       OALIoCtlVBridge            1000c04c f   oal_kitl:kitleth.obj
 0001:0000b498       OALKitlEthInit             1000c498 f   oal_kitl:kitleth.obj
 0001:0000b8bc       OALLogSerial               1000c8bc f   kitl_log:log.obj
 0001:0000b910       OALLogPrintf               1000c910 f   kitl_log:log.obj
 0001:0000b93c       ApbhDmaInit                1000c93c f   i_ddk_apbhdma_mx28_fsl_v2_pdk1_9:i_ddk_apbhdma.obj
 0001:0000b98c       ApbhDmaAlloc               1000c98c f   i_ddk_apbhdma_mx28_fsl_v2_pdk1_9:i_ddk_apbhdma.obj
 0001:0000ba14       DDKIomuxSetPinMux          1000ca14 f   i_ddk_iomux_mx28_fsl_v2_pdk1_9:i_soc_ddk_iomux.obj
 0001:0000bc08       DDKIomuxSetPadConfig       1000cc08 f   i_ddk_iomux_mx28_fsl_v2_pdk1_9:i_soc_ddk_iomux.obj
 0001:0000be14       IomuxAlloc                 1000ce14 f   i_ddk_iomux_mx28_fsl_v2_pdk1_9:i_soc_ddk_iomux.obj
 0001:0000bea4       BSPClockAlloc              1000cea4 f   i_ddk_clk_mx28_fsl_v2_pdk1_9:i_ddk_clk.obj
 0001:0000bf28       ClockDealloc               1000cf28 f   i_ddk_clk_mx28_fsl_v2_pdk1_9:i_ddk_clk.obj
 0001:0000bf60       ClockAlloc                 1000cf60 f   i_ddk_clk_mx28_fsl_v2_pdk1_9:i_ddk_clk.obj
 0001:0000bfd8       OALPAtoVA                  1000cfd8 f   oal_memory_arm:memory.obj
 0001:0000c05c       OALVAtoPA                  1000d05c f   oal_memory_arm:memory.obj
 0001:0000c0d8       OALArgsQuery               1000d0d8 f   args:args.obj
 0001:0000c230       OALStall                   1000d230 f   bspcmn:bsputils.obj
 0001:0000c29c       OEMKitlGetSecs             1000d29c f   bspcmn:bsputils.obj
 0001:0000c2d4       OALGetTickCount            1000d2d4 f   bspcmn:bsputils.obj
 0001:0000c318       ProduceBuffer              1000d318 f   vbridge:vbridge.obj
 0001:0000c430       ProduceBufferDone          1000d430 f   vbridge:vbridge.obj
 0001:0000c470       ConsumeBuffer              1000d470 f   vbridge:vbridge.obj
 0001:0000c534       ConsumeBufferDone          1000d534 f   vbridge:vbridge.obj
 0001:0000c5c4       VBridgeInit                1000d5c4 f   vbridge:vbridge.obj
 0001:0000c6d8       VBridgeKGetOneTxBuffer     1000d6d8 f   vbridge:vbridge.obj
 0001:0000c74c       VBridgeKGetOneTxBufferComplete 1000d74c f   vbridge:vbridge.obj
 0001:0000c798       VBridgeKIndicateOneRxBuffer 1000d798 f   vbridge:vbridge.obj
 0001:0000c888       VBridgeKSetLocalMacAddress 1000d888 f   vbridge:vbridge.obj
 0001:0000c908       VBridgeUGetOneTxPacket     1000d908 f   vbridge:vbridge.obj
 0001:0000c964       VBridgeUGetOneTxPacketComplete 1000d964 f   vbridge:vbridge.obj
 0001:0000c9a8       VBridgeUGetOneRxPacket     1000d9a8 f   vbridge:vbridge.obj
 0001:0000c9fc       VBridgeUGetOneRxPacketComplete 1000d9fc f   vbridge:vbridge.obj
 0001:0000ca38       VBridgeUWildCard           1000da38 f   vbridge:vbridge.obj
 0001:0000cacc       VBridgeUGetEDBGMac         1000dacc f   vbridge:vbridge.obj
 0001:0000cb14       VBridgeUCurrentPacketFilter 1000db14 f   vbridge:vbridge.obj
 0001:0000cb5c       __GSHandlerCheckCommon     1000db5c f   fulllibc:gshandler.obj
 0001:0000cb98       __GSHandlerCheck           1000db98 f   fulllibc:gshandler.obj
 0001:0000cbbc       memset                     1000dbbc f   fulllibc:memset.obj
 0001:0000cc44       __security_check_cookie    1000dc44 f   fulllibc:armsecgs.obj
 0001:0000cc58       __gsfailure                1000dc58 f   fulllibc:armsecgs.obj
 0001:0000cc9c       strcpy                     1000dc9c f   fulllibc:strcpy.obj
 0001:0000cd20       strlen                     1000dd20 f   fulllibc:mdsstrlen.obj
 0001:0000cd84       strcmp                     1000dd84 f   fulllibc:mdsstrcmp.obj
 0001:0000ce74       memcpy                     1000de74 f   fulllibc:memcpy.obj
 0001:0000d220       memcpybigblk               1000e220 f   fulllibc:memcpy.obj
 0001:0000dbd4       __C_specific_handler       1000ebd4 f   fulllibc:chandler.obj
 0001:0000dd20       __GSHandlerCheck_SEH       1000ed20 f   fulllibc:gshandlerseh.obj
 0001:0000dd70       __rt_sdiv                  1000ed70 f   fulllibc:__div.obj
 0001:0000de4c       memcmp                     1000ee4c f   fulllibc:memcmp.obj
 0001:0000df18       __rt_udiv                  1000ef18 f   fulllibc:__udiv.obj
 0001:0000dfdc       __C_ExecuteTerminationHandler 1000efdc f   fulllibc:jmpuwind.obj
 0001:0000dfdc       __C_ExecuteExceptionFilter 1000efdc f   fulllibc:jmpuwind.obj
 0001:0000e01c       __raise_int_divide_by_zero 1000f01c f   fulllibc:diverr.obj
 0001:0000e040       __crtRaiseException        1000f040 f   fulllibc:raiseexc.obj
 0001:0000e05c       RndisRestart               1000f05c f   fsl_rne_mdd_common_fsl_v2_pdk1_9:rndis.obj
 0001:0000e0c4       RndisPrepareRndisPacket    1000f0c4 f   fsl_rne_mdd_common_fsl_v2_pdk1_9:rndis.obj
 0001:0000e16c       MddSendRndisPacketComplete 1000f16c f   fsl_rne_mdd_common_fsl_v2_pdk1_9:rndis.obj
 0001:0000e180       RndisEDbgSendFrame         1000f180 f   fsl_rne_mdd_common_fsl_v2_pdk1_9:rndis.obj
 0001:0000e2c8       MddSendRndisMessageComplete 1000f2c8 f   fsl_rne_mdd_common_fsl_v2_pdk1_9:rndis.obj
 0001:0000e2f4       RndisSendRndisMessage      1000f2f4 f   fsl_rne_mdd_common_fsl_v2_pdk1_9:rndis.obj
 0001:0000e518       RndisProcessMessage        1000f518 f   fsl_rne_mdd_common_fsl_v2_pdk1_9:rndis.obj
 0001:0000e8b8       RndisEDbgGetFrame          1000f8b8 f   fsl_rne_mdd_common_fsl_v2_pdk1_9:rndis.obj
 0001:0000ea08       RndisProcessPacket         1000fa08 f   fsl_rne_mdd_common_fsl_v2_pdk1_9:rndis.obj
 0001:0000eb58       RndisInit                  1000fb58 f   fsl_rne_mdd_common_fsl_v2_pdk1_9:rndis.obj
 0001:0000ed74       RndisCurrentPacketFilter   1000fd74 f   fsl_rne_mdd_common_fsl_v2_pdk1_9:rndis.obj
 0001:0000ed78       RndisMulticastList         1000fd78 f   fsl_rne_mdd_common_fsl_v2_pdk1_9:rndis.obj
 0001:0000ed80       RndisEnableInts            1000fd80 f   fsl_rne_mdd_common_fsl_v2_pdk1_9:rndis.obj
 0001:0000edac       RndisDisableInts           1000fdac f   fsl_rne_mdd_common_fsl_v2_pdk1_9:rndis.obj
 0001:0000edd8       HostMiniQueryInformation   1000fdd8 f   fsl_rne_mdd_common_fsl_v2_pdk1_9:hostmini.obj
 0001:0000f0c8       HostMiniSetInformation     100100c8 f   fsl_rne_mdd_common_fsl_v2_pdk1_9:hostmini.obj
 0001:0000f214       MddIndicateRndisMessage    10010214 f   fsl_rne_mdd_common_fsl_v2_pdk1_9:hostmini.obj
 0001:0000f224       MddIndicateRndisPacket     10010224 f   fsl_rne_mdd_common_fsl_v2_pdk1_9:hostmini.obj
 0001:0000f244       MDDAllocDataWrapper        10010244 f   fsl_rne_mdd_common_fsl_v2_pdk1_9:hostmini.obj
 0001:0000f26c       MDDFreeMem                 1001026c f   fsl_rne_mdd_common_fsl_v2_pdk1_9:hostmini.obj
 0001:0000f270       MDDFreeDataWrapper         10010270 f   fsl_rne_mdd_common_fsl_v2_pdk1_9:hostmini.obj
 0001:0000f284       HostMiniInit               10010284 f   fsl_rne_mdd_common_fsl_v2_pdk1_9:hostmini.obj
 0001:0000f2c8       InitBuffer                 100102c8 f   fsl_rne_mdd_common_fsl_v2_pdk1_9:util.obj
 0001:0000f364       AvaiableBufferSize         10010364 f   fsl_rne_mdd_common_fsl_v2_pdk1_9:util.obj
 0001:0000f3a0       AllocBuffer                100103a0 f   fsl_rne_mdd_common_fsl_v2_pdk1_9:util.obj
 0001:0000f490       FreeBuffer                 10010490 f   fsl_rne_mdd_common_fsl_v2_pdk1_9:util.obj
 0001:0000f60c       GetFirstUsedBuffer         1001060c f   fsl_rne_mdd_common_fsl_v2_pdk1_9:util.obj
 0001:0000f704       PDD_GetDescriptor          10010704 f   fsl_rne_pdd_common_fsl_v2_pdk1_9:rndis_pdd.obj
 0001:0000f8b0       PDD_DoVendorCommand        100108b0 f   fsl_rne_pdd_common_fsl_v2_pdk1_9:rndis_pdd.obj
 0001:0000f9cc       setupDataOutTransfer       100109cc f   fsl_rne_pdd_common_fsl_v2_pdk1_9:rndis_pdd.obj
 0001:0000fae0       HandleSetupPacket          10010ae0 f   fsl_rne_pdd_common_fsl_v2_pdk1_9:rndis_pdd.obj
 0001:0000fd2c       TxComplete                 10010d2c f   fsl_rne_pdd_common_fsl_v2_pdk1_9:rndis_pdd.obj
 0001:0000ff3c       PDD_SendRndisMessage       10010f3c f   fsl_rne_pdd_common_fsl_v2_pdk1_9:rndis_pdd.obj
 0001:00010044       PDD_SendRndisPacket        10011044 f   fsl_rne_pdd_common_fsl_v2_pdk1_9:rndis_pdd.obj
 0001:00010174       PDD_Set                    10011174 f   fsl_rne_pdd_common_fsl_v2_pdk1_9:rndis_pdd.obj
 0001:00010320       PDD_Get                    10011320 f   fsl_rne_pdd_common_fsl_v2_pdk1_9:rndis_pdd.obj
 0001:00010464       PDD_ISR                    10011464 f   fsl_rne_pdd_common_fsl_v2_pdk1_9:rndis_pdd.obj
 0001:00010484       PDD_IndicateRndisPacketComplete 10011484 f   fsl_rne_pdd_common_fsl_v2_pdk1_9:rndis_pdd.obj
 0001:000104e4       SetRNDISSerialNumber       100114e4 f   fsl_rne_pdd_common_fsl_v2_pdk1_9:rndis_pdd.obj
 0001:000105ac       NotifyHandler              100115ac f   fsl_rne_pdd_common_fsl_v2_pdk1_9:rndis_pdd.obj
 0001:00010b2c       PDDInit                    10011b2c f   fsl_rne_pdd_common_fsl_v2_pdk1_9:rndis_pdd.obj
 0001:00010e48       ClearUsbstsUI              10011e48 f   usb_usbfn_mx28_fsl_v2_pdk1_9:i_pdd.obj
 0001:00011594       UfnPdd_PowerDown           10012594 f   usb_usbfn_mx28_fsl_v2_pdk1_9:i_pdd.obj
 0001:0001165c       UfnPdd_PowerUp             1001265c f   usb_usbfn_mx28_fsl_v2_pdk1_9:i_pdd.obj
 0001:00011714       UpdateDevicePower          10012714 f   usb_usbfn_mx28_fsl_v2_pdk1_9:i_pdd.obj
 0001:000117d0       SetupEvent                 100127d0 f   usb_usbfn_mx28_fsl_v2_pdk1_9:i_pdd.obj
 0001:00011920       CopyFromUncachedBuffer     10012920 f   usb_usbfn_mx28_fsl_v2_pdk1_9:i_pdd.obj
 0001:00011cb8       UfnPdd_IssueTransfer       10012cb8 f   usb_usbfn_mx28_fsl_v2_pdk1_9:i_pdd.obj
 0001:00012170       UfnPdd_AbortTransfer       10013170 f   usb_usbfn_mx28_fsl_v2_pdk1_9:i_pdd.obj
 0001:0001230c       UfnPdd_StallEndpoint       1001330c f   usb_usbfn_mx28_fsl_v2_pdk1_9:i_pdd.obj
 0001:0001238c       UfnPdd_ClearEndpointStall  1001338c f   usb_usbfn_mx28_fsl_v2_pdk1_9:i_pdd.obj
 0001:00012420       UfnPdd_IsEndpointHalted    10013420 f   usb_usbfn_mx28_fsl_v2_pdk1_9:i_pdd.obj
 0001:0001248c       UfnPdd_SendControlStatusHandshake 1001348c f   usb_usbfn_mx28_fsl_v2_pdk1_9:i_pdd.obj
 0001:00012508       UfnPdd_InitiateRemoteWakeup 10013508 f   usb_usbfn_mx28_fsl_v2_pdk1_9:i_pdd.obj
 0001:00012510       SetPowerState              10013510 f   usb_usbfn_mx28_fsl_v2_pdk1_9:i_pdd.obj
 0001:0001255c       UfnPdd_IOControl           1001355c f   usb_usbfn_mx28_fsl_v2_pdk1_9:i_pdd.obj
 0001:0001276c       UfnPdd_Deinit              1001376c f   usb_usbfn_mx28_fsl_v2_pdk1_9:i_pdd.obj
 0001:00012780       UfnPdd_DeregisterDevice    10013780 f   usb_usbfn_mx28_fsl_v2_pdk1_9:i_pdd.obj
 0001:00012788       UfnPdd_Stop                10013788 f   usb_usbfn_mx28_fsl_v2_pdk1_9:i_pdd.obj
 0001:000127f8       UfnPdd_DeinitEndpoint      100137f8 f   usb_usbfn_mx28_fsl_v2_pdk1_9:i_pdd.obj
 0001:00012890       UfnPdd_InitEndpoint        10013890 f   usb_usbfn_mx28_fsl_v2_pdk1_9:i_pdd.obj
 0001:000129a4       UfnPdd_SetAddress          100139a4 f   usb_usbfn_mx28_fsl_v2_pdk1_9:i_pdd.obj
 0001:000129d8       UfnPdd_Start               100139d8 f   usb_usbfn_mx28_fsl_v2_pdk1_9:i_pdd.obj
 0001:00012b08       UfnPdd_RegisterDevice      10013b08 f   usb_usbfn_mx28_fsl_v2_pdk1_9:i_pdd.obj
 0001:00012d38       UfnPdd_IsEndpointSupportable 10013d38 f   usb_usbfn_mx28_fsl_v2_pdk1_9:i_pdd.obj
 0001:00012d54       UfnPdd_IsConfigurationSupportable 10013d54 f   usb_usbfn_mx28_fsl_v2_pdk1_9:i_pdd.obj
 0001:00012eac       UfnPdd_Init                10013eac f   usb_usbfn_mx28_fsl_v2_pdk1_9:i_pdd.obj
 0001:000131d0       CheckEndpoint              100141d0 f   usb_usbfn_mx28_fsl_v2_pdk1_9:i_pdd.obj
 0001:00013668       InterruptHandle            10014668 f   usb_usbfn_mx28_fsl_v2_pdk1_9:i_pdd.obj
 0001:00013d40       usb_reg_write              10014d40 f   usb_usbfn_mx28_fsl_v2_pdk1_9:usb.obj
 0001:00013d48       FslUfnGetUsbFnPdd          10014d48 f   usb_usbfn_eboot_mx28_fsl_v2_pdk1_9:i_stub.obj
 0001:00013d54       FslUfnRequestIrq           10014d54 f   usb_usbfn_eboot_mx28_fsl_v2_pdk1_9:i_stub.obj
 0001:00013d5c       FslUfnIsUSBKitlEnable      10014d5c f   usb_usbfn_eboot_mx28_fsl_v2_pdk1_9:i_stub.obj
 0001:00013d64       FslUfnCreateThread         10014d64 f   usb_usbfn_eboot_mx28_fsl_v2_pdk1_9:i_stub.obj
 0001:00013d6c       UsbFnInterruptThread       10014d6c f   usb_usbfn_eboot_mx28_fsl_v2_pdk1_9:i_stub.obj
 0001:00013d94       FslUfnTrigIrq              10014d94 f   usb_usbfn_eboot_mx28_fsl_v2_pdk1_9:i_stub.obj
 0001:00013dbc       FslUfnDeinit               10014dbc f   usb_usbfn_eboot_mx28_fsl_v2_pdk1_9:i_stub.obj
 0001:00013dc0       FslUfnGetDMABuffer         10014dc0 f   usb_usbfn_eboot_mx28_fsl_v2_pdk1_9:i_stub.obj
 0001:00013e3c       BSPUSBClockSwitch          10014e3c f   usb_usbfn_eboot_mx28_fsl_v2_pdk1_9:i_stub.obj
 0001:00013e44       BSPUSBClockCreateFileMapping 10014e44 f   usb_usbfn_eboot_mx28_fsl_v2_pdk1_9:i_stub.obj
 0001:00013e4c       GetDeviceRegistryParams    10014e4c f   usb_usbfn_eboot_mx28_fsl_v2_pdk1_9:i_stub.obj
 0001:00013e68       SetInterruptEvent          10014e68 f   usb_usbfn_eboot_mx28_fsl_v2_pdk1_9:i_stub.obj
 0001:00013e9c       FslUfnGetPageNumber        10014e9c f   usb_usbfn_eboot_mx28_fsl_v2_pdk1_9:i_stub.obj
 0001:00013ebc       FslUfnGetPageSize          10014ebc f   usb_usbfn_eboot_mx28_fsl_v2_pdk1_9:i_stub.obj
 0001:00013ec4       FslUfnGetPageShift         10014ec4 f   usb_usbfn_eboot_mx28_fsl_v2_pdk1_9:i_stub.obj
 0001:00013ecc       FslInitializeCriticalSection 10014ecc f   usb_usbfn_eboot_mx28_fsl_v2_pdk1_9:i_stub.obj
 0001:00013ed0       FslEnterCriticalSection    10014ed0 f   usb_usbfn_eboot_mx28_fsl_v2_pdk1_9:i_stub.obj
 0001:00013ed4       FslLeaveCriticalSection    10014ed4 f   usb_usbfn_eboot_mx28_fsl_v2_pdk1_9:i_stub.obj
 0001:00013ed8       CreateBusAccessHandle      10014ed8 f   usb_usbfn_eboot_mx28_fsl_v2_pdk1_9:i_stub.obj
 0001:00013ee0       CeLogData                  10014ee0 f   usb_usbfn_eboot_mx28_fsl_v2_pdk1_9:i_stub.obj
 0001:00013ee4       MmMapIoSpace               10014ee4 f   usb_usbfn_eboot_mx28_fsl_v2_pdk1_9:i_stub.obj
 0001:00013ef8       InterruptDisable           10014ef8 f   usb_usbfn_eboot_mx28_fsl_v2_pdk1_9:i_stub.obj
 0001:00013efc       LockPages                  10014efc f   usb_usbfn_eboot_mx28_fsl_v2_pdk1_9:i_stub.obj
 0001:00013f18       GetLastError               10014f18 f   usb_usbfn_eboot_mx28_fsl_v2_pdk1_9:i_stub.obj
 0001:00013f20       UnlockPages                10014f20 f   usb_usbfn_eboot_mx28_fsl_v2_pdk1_9:i_stub.obj
 0001:00013f28       CeOpenCallerBuffer         10014f28 f   usb_usbfn_eboot_mx28_fsl_v2_pdk1_9:i_stub.obj
 0001:00013f34       CeCloseCallerBuffer        10014f34 f   usb_usbfn_eboot_mx28_fsl_v2_pdk1_9:i_stub.obj
 0001:00013f3c       StringCchLengthW           10014f3c f   usb_usbfn_eboot_mx28_fsl_v2_pdk1_9:i_stub.obj
 0001:00013f50       StringCchVPrintfW          10014f50 f   usb_usbfn_eboot_mx28_fsl_v2_pdk1_9:i_stub.obj
 0001:00013f58       SetDevicePowerState        10014f58 f   usb_usbfn_eboot_mx28_fsl_v2_pdk1_9:i_stub.obj
 0001:00013f60       Sleep                      10014f60 f   usb_usbfn_eboot_mx28_fsl_v2_pdk1_9:i_stub.obj
 0001:00013f6c       FslNKDbgPrintfW            10014f6c f   usb_usbfn_eboot_mx28_fsl_v2_pdk1_9:i_stub.obj
 0001:00013fc0       CacheRangeFlush            10014fc0 f   usb_usbfn_eboot_mx28_fsl_v2_pdk1_9:i_stub.obj
 0001:00014030       MIIREAD                    10015030 f   oal_ethdrv_enet_common_fsl_v2_pdk1_9:enet.obj
 0001:000140b0       MIIWRITE                   100150b0 f   oal_ethdrv_enet_common_fsl_v2_pdk1_9:enet.obj
 0001:00014114       CalculateHashValue         10015114 f   oal_ethdrv_enet_common_fsl_v2_pdk1_9:enet.obj
 0001:00014164       ENETEnableInts             10015164 f   oal_ethdrv_enet_common_fsl_v2_pdk1_9:enet.obj
 0001:00014180       ENETDisableInts            10015180 f   oal_ethdrv_enet_common_fsl_v2_pdk1_9:enet.obj
 0001:0001419c       ENETPowerOff               1001519c f   oal_ethdrv_enet_common_fsl_v2_pdk1_9:enet.obj
 0001:000141b4       ENETPowerOn                100151b4 f   oal_ethdrv_enet_common_fsl_v2_pdk1_9:enet.obj
 0001:000141e4       ENETInitDMABuffer          100151e4 f   oal_ethdrv_enet_common_fsl_v2_pdk1_9:enet.obj
 0001:000143cc       ENETInit                   100153cc f   oal_ethdrv_enet_common_fsl_v2_pdk1_9:enet.obj
 0001:00014890       CopyFrame                  10015890 f   oal_ethdrv_enet_common_fsl_v2_pdk1_9:enet.obj
 0001:000148d4       ENETSendFrame              100158d4 f   oal_ethdrv_enet_common_fsl_v2_pdk1_9:enet.obj
 0001:000149f0       ENETGetFrame               100159f0 f   oal_ethdrv_enet_common_fsl_v2_pdk1_9:enet.obj
 0001:00014b94       ENETCurrentPacketFilter    10015b94 f   oal_ethdrv_enet_common_fsl_v2_pdk1_9:enet.obj
 0001:00014c38       ENETMulticastList          10015c38 f   oal_ethdrv_enet_common_fsl_v2_pdk1_9:enet.obj
 0001:00015060       ?HandleGetDescriptor@@YAXPAU_USB_DEVICE_REQUEST@@PAU_EP0_REQUEST@@@Z 10016060 f   fsl_serial_pdd_common_fsl_v2_pdk1_9:serial_dl.obj
 0001:000150f0       ?HandleTransferComplete@@YAXPAU_STransfer@@@Z 100160f0 f   fsl_serial_pdd_common_fsl_v2_pdk1_9:serial_dl.obj
 0001:00015598       USBSerialInit              10016598 f   fsl_serial_pdd_common_fsl_v2_pdk1_9:serial_dl.obj
 0001:000156b0       OEMSerialSendRaw           100166b0 f   fsl_serial_pdd_common_fsl_v2_pdk1_9:serial_dl.obj
 0001:000157bc       USBKitlSerialInit          100167bc f   fsl_serial_pdd_common_fsl_v2_pdk1_9:serial_dl.obj
 0001:000157d4       USBKitlSerialRecv          100167d4 f   fsl_serial_pdd_common_fsl_v2_pdk1_9:serial_dl.obj
 0001:000158cc       USBKitlSerialSend          100168cc f   fsl_serial_pdd_common_fsl_v2_pdk1_9:serial_dl.obj
 0001:000158f0       USBKitlSerialEnableInts    100168f0 f   fsl_serial_pdd_common_fsl_v2_pdk1_9:serial_dl.obj
 0001:000158f4       USBKitlSerialDisableInts   100168f4 f   fsl_serial_pdd_common_fsl_v2_pdk1_9:serial_dl.obj
 0001:000158f8       OALFlushDCache             100168f8 f   oal_cache_arm926:flushdc.obj
 0001:00015904       OALFlushDCacheLines        10016904 f   oal_cache_arm926:flushdclines.obj
 0001:00015924       OALKitlENETBSPInit         10016924 f   bspenet:bspenet.obj
 0001:00015b08       BSPENETClockInit           10016b08 f   bspenet:bspenet.obj
 0001:00015b4c       BSPENETusesRMII            10016b4c f   bspenet:bspenet.obj
 0001:00015b54       memmove                    10016b54 f   fulllibc:memmove.obj
 0001:000162e4       memmovebigblk              100172e4 f   fulllibc:memmove.obj
 0001:00016d7c       GetRNDISMACAddress         10017d7c f   fsl_usbfn_rndiskitl_mx28_fsl_v2_pdk1_9:hwinit.obj
 0001:00016db0       controllerSetup            10017db0 f   fsl_usbfn_rndiskitl_mx28_fsl_v2_pdk1_9:hwinit.obj
 0001:00016f20       USBClockInit               10017f20 f   fsl_usbfn_rndiskitl_mx28_fsl_v2_pdk1_9:hwinit.obj
 0001:00016f68       HardwareInitialize         10017f68 f   fsl_usbfn_rndiskitl_mx28_fsl_v2_pdk1_9:hwinit.obj
 0001:00016fa0       PowerDownSchemeExist       10017fa0 f   fsl_usbfn_rndiskitl_mx28_fsl_v2_pdk1_9:hwinit.obj
 0001:00016fa8       BSPUsbfnDetachNeedRSSwitch 10017fa8 f   fsl_usbfn_rndiskitl_mx28_fsl_v2_pdk1_9:hwinit.obj
 0001:00016fb0       BSPUsbPhyEnterLowPowerMode 10017fb0 f   fsl_usbfn_rndiskitl_mx28_fsl_v2_pdk1_9:hwinit.obj
 0001:00016fb4       BSPUsbSetBusConfig         10017fb4 f   fsl_usbfn_rndiskitl_mx28_fsl_v2_pdk1_9:hwinit.obj
 0001:00016fb8       BSPUsbSetCurrentLimitation 10017fb8 f   fsl_usbfn_rndiskitl_mx28_fsl_v2_pdk1_9:hwinit.obj
 0001:00016fbc       BSPUSBInterruptControl     10017fbc f   fsl_usbfn_rndiskitl_mx28_fsl_v2_pdk1_9:hwinit.obj
 0001:00016fc0       BSPPhyShowDevDiscon        10017fc0 f   fsl_usbfn_rndiskitl_mx28_fsl_v2_pdk1_9:hwinit.obj
 0001:00016fc8       FslUfnGetKitlDMABuffer     10017fc8 f   fsl_usbfn_rndiskitl_mx28_fsl_v2_pdk1_9:stub.obj
 0001:00016fd0       DDKGpioEnableDataPin       10017fd0 f   i_ddk_iomux_mx28_fsl_v2_pdk1_9:i_soc_ddk_gpio.obj
 0001:000170f4       DDKGpioWriteDataPin        100180f4 f   i_ddk_iomux_mx28_fsl_v2_pdk1_9:i_soc_ddk_gpio.obj
 0002:000000e0       g_dwKITLThreadPriority     100190e0     kitlcore:ethdbg.obj
 0002:000000e4       g_dwKITLTimerThreadPriority 100190e4     kitlcore:ethdbg.obj
 0002:000000e8       __security_cookie          100190e8     nkstub:nkstub.obj
 0002:000000ec       __security_cookie_complement 100190ec     nkstub:nkstub.obj
 0002:000000f0       dpCurSettings              100190f0     kitl_log:debug.obj
 0002:00000534       bRndisSendPacketEmpty      10019534     fsl_rne_mdd_common_fsl_v2_pdk1_9:rndis.obj
 0002:00000568       RNdisMddSupportedOids      10019568     fsl_rne_mdd_common_fsl_v2_pdk1_9:hostmini.obj
 0002:000005f8       g_InterruptData            100195f8     fsl_rne_pdd_common_fsl_v2_pdk1_9:rndis_pdd.obj
 0002:00001000       g_rndis_ep2_buf            1001a000     fsl_rne_pdd_common_fsl_v2_pdk1_9:buffer.obj
 0002:00001000       g_serial_rev_buf           1001a000     fsl_rne_pdd_common_fsl_v2_pdk1_9:buffer.obj
 0002:00003000       g_rndis_ep3_buf            1001c000     fsl_rne_pdd_common_fsl_v2_pdk1_9:buffer.obj
 0002:00003000       g_serial_send_buf          1001c000     fsl_rne_pdd_common_fsl_v2_pdk1_9:buffer.obj
 0002:00005000       g_rndis_ep0_buf            1001e000     fsl_rne_pdd_common_fsl_v2_pdk1_9:buffer.obj
 0002:00005400       Am79c874Info               1001e400     oal_ethdrv_enet_common_fsl_v2_pdk1_9:enet.obj
 0002:00005608       LAN87xxInfo                1001e608     oal_ethdrv_enet_common_fsl_v2_pdk1_9:enet.obj
 0002:00005810       Dp83640Info                1001e810     oal_ethdrv_enet_common_fsl_v2_pdk1_9:enet.obj
 0002:00005a14       PhyInfo                    1001ea14     oal_ethdrv_enet_common_fsl_v2_pdk1_9:enet.obj
 0002:00005a60       pv_HWregRTC                1001ea60     kitl.obj
 0002:0002b3c0       pv_HWregAPBH               100443c0     i_ddk_apbhdma_mx28_fsl_v2_pdk1_9:i_ddk_apbhdma.obj
 0002:0002b3c4       pv_HWregPINCTRL            100443c4     i_ddk_iomux_mx28_fsl_v2_pdk1_9:i_soc_ddk_iomux.obj
 0002:0002b3c8       pv_HWregCLKCTRL            100443c8     i_ddk_clk_mx28_fsl_v2_pdk1_9:i_ddk_clk.obj
 0002:0002b3d4       dwCurrentPacketFilter      100443d4     vbridge:vbridge.obj
 0002:0002b3d8       bValidAddress              100443d8     vbridge:vbridge.obj
 0002:0002b3dc       bWarnNoMacDone             100443dc     vbridge:vbridge.obj
 0002:0002b3e0       g_bResetBuffer             100443e0     vbridge:vbridge.obj
 0002:0002b3e4       g_bUOpened                 100443e4     vbridge:vbridge.obj
 0002:000352c0       g_pEP3DataWrapper          1004e2c0     fsl_rne_pdd_common_fsl_v2_pdk1_9:rndis_pdd.obj
 0002:000352c4       g_devState                 1004e2c4     fsl_rne_pdd_common_fsl_v2_pdk1_9:rndis_pdd.obj
 0002:000352c8       g_EP0TransferState         1004e2c8     fsl_rne_pdd_common_fsl_v2_pdk1_9:rndis_pdd.obj
 0002:000352cc       g_EP2TransferState         1004e2cc     fsl_rne_pdd_common_fsl_v2_pdk1_9:rndis_pdd.obj
 0002:00035fd8       ?g_mddInterface@@3U_UFN_MDD_INTERFACE_INFO@@A 1004efd8     fsl_serial_pdd_common_fsl_v2_pdk1_9:serial_dl.obj
 0002:00035fe0       ?g_EP1Transfer@@3U_STransfer@@A 1004efe0     fsl_serial_pdd_common_fsl_v2_pdk1_9:serial_dl.obj
 0002:00036000       ?g_RecvBuffer@@3PAEA       1004f000     fsl_serial_pdd_common_fsl_v2_pdk1_9:serial_dl.obj
 0002:00036020       ?g_pddInterface@@3U_UFN_PDD_INTERFACE_INFO@@A 1004f020     fsl_serial_pdd_common_fsl_v2_pdk1_9:serial_dl.obj
 0002:00036080       ?g_EP2Transfer@@3U_STransfer@@A 1004f080     fsl_serial_pdd_common_fsl_v2_pdk1_9:serial_dl.obj
 0002:000360a0       ?g_EP0Transfer@@3U_STransfer@@A 1004f0a0     fsl_serial_pdd_common_fsl_v2_pdk1_9:serial_dl.obj
 0002:00036104       ?g_DeviceState@@3W4DEVICE_STATE@@A 1004f104     fsl_serial_pdd_common_fsl_v2_pdk1_9:serial_dl.obj
 0002:00036108       ?g_EP0State@@3W4TRANSFER_STATE@@A 1004f108     fsl_serial_pdd_common_fsl_v2_pdk1_9:serial_dl.obj
 0002:0003610c       ?g_EP1State@@3W4TRANSFER_STATE@@A 1004f10c     fsl_serial_pdd_common_fsl_v2_pdk1_9:serial_dl.obj
 0002:00036110       ?g_EP2State@@3W4TRANSFER_STATE@@A 1004f110     fsl_serial_pdd_common_fsl_v2_pdk1_9:serial_dl.obj
 0002:00036114       ?g_RecvBufferHead@@3GA     1004f114     fsl_serial_pdd_common_fsl_v2_pdk1_9:serial_dl.obj
 0002:00036118       ?g_RecvBufferTail@@3GA     1004f118     fsl_serial_pdd_common_fsl_v2_pdk1_9:serial_dl.obj
 0002:0003611c       g_pBSPArgs                 1004f11c     <common>
 0002:00036120       g_KitlInterval             1004f120     <common>
 0002:00036140       preallocent                1004f140     <common>
 0002:000363d4       g_pprcNK                   1004f3d4     <common>
 0002:000363e0       DfltClnts                  1004f3e0     <common>
 0002:00036580       g_kpriv                    1004f580     <common>
 0002:000365e0       TimerListCS                1004f5e0     <common>
 0002:000365f4       KITLGlobalState            1004f5f4     <common>
 0002:00036600       SendFmtBuf                 1004f600     <common>
 0002:00036c00       KITLcs                     1004fc00     <common>
 0002:00036c14       g_pKData                   1004fc14     <common>
 0002:00036c20       KITLODScs                  1004fc20     <common>
 0002:00036c40       KITLKCallcs                1004fc40     <common>
 0002:00036c60       Kitl                       1004fc60     <common>
 0002:00036cc0       KITLClients                1004fcc0     <common>
 0002:00036ec0       g_pNKGlobal                1004fec0     <common>
 0002:00036ec4       g_pOemGlobal               1004fec4     <common>
 0002:00036ee0       g_oalKitlBuffer            1004fee0     <common>
 0002:00046ee0       g_pDdkClkConfig            1005fee0     <common>
 0002:00046f00       g_oalCacheInfo             1005ff00     <common>
 0002:00046f50       g_UUID                     1005ff50     <common>
 0002:00046f60       pucRxMax                   1005ff60     <common>
 0002:00046f64       pucTxConsumer              1005ff64     <common>
 0002:00046f68       pucTxMin                   1005ff68     <common>
 0002:00046f80       TxBuffers                  1005ff80     <common>
 0002:0004af84       pucRxProducer              10063f84     <common>
 0002:0004af88       EDBGMacAddress             10063f88     <common>
 0002:0004af90       pucTxMax                   10063f90     <common>
 0002:0004af94       pucRxMin                   10063f94     <common>
 0002:0004af98       pucTxProducer              10063f98     <common>
 0002:0004af9c       pucRxConsumer              10063f9c     <common>
 0002:0004afa0       RxBuffers                  10063fa0     <common>
 0002:0004efc0       RndisMdd                   10067fc0     <common>
 0002:0004f090       g_EP0DataWrapper           10068090     <common>
 0002:0004f0a0       MDDZONE5                   100680a0     <common>
 0002:0004f0a8       g_mddInterface             100680a8     <common>
 0002:0004f0c0       g_EP1Transfer              100680c0     <common>
 0002:0004f0e0       g_RndisKitlDev             100680e0     <common>
 0002:0004f528       g_udr                      10068528     <common>
 0002:0004f530       MDDZONE4                   10068530     <common>
 0002:0004f534       PDDZONE                    10068534     <common>
 0002:0004f540       g_EP3Transfer              10068540     <common>
 0002:0004f560       g_pddInterface             10068560     <common>
 0002:0004f5c0       MDDZONE3                   100685c0     <common>
 0002:0004f5e0       g_EP2Transfer              100685e0     <common>
 0002:0004f600       PDDZONE0                   10068600     <common>
 0002:0004f620       g_EP0Transfer              10068620     <common>
 0002:0004f640       MDDZONE0                   10068640     <common>
 0002:0004f644       MDDZONE                    10068644     <common>
 0002:0004f648       MDDZONE2                   10068648     <common>
 0002:0004f660       g_csRegister               10068660     <common>

 entry point at        0001:00006530

 Static symbols

 0001:00004d24       NewClient                  10005d24 f   kitlcore:ethdbg.obj
 0001:00004e14       RegisterClientPart2        10005e14 f   kitlcore:ethdbg.obj
 0001:00005160       ChkCnxDsktp                10006160 f   kitlcore:ethdbg.obj
 0001:00005174       TranCnxDsktp               10006174 f   kitlcore:ethdbg.obj
 0001:000051a4       KITLConnectToDesktop       100061a4 f   kitlcore:ethdbg.obj
 0001:00005368       MemCopyUserPtr             10006368 f   kitlcore:ethdbg.obj
 0001:00005404       KITLInterruptThread        10006404 f   kitlcore:ethdbg.obj
 0001:000055c0       DoRegisterClient           100065c0 f   kitlcore:ethdbg.obj
 0001:00005ae0       StartKitl                  10006ae0 f   kitlcore:ethdbg.obj
 0001:000065e0       pOutputByte                100075e0 f   kitlcore:debug.obj
 0001:00006610       pOutputNumHex              10007610 f   kitlcore:debug.obj
 0001:00006658       pOutputNumDecimal          10007658 f   kitlcore:debug.obj
 0001:0000669c       vOutputFormatString        1000769c f   kitlcore:debug.obj
 0001:00006aa8       TimerListInsert            10007aa8 f   kitlcore:timer.obj
 0001:00007064       CheckCfg                   10008064 f   kitlcore:edbgprot.obj
 0001:00007078       ChkAck                     10008078 f   kitlcore:edbgprot.obj
 0001:000073fc       SendAckNack                100083fc f   kitlcore:edbgprot.obj
 0001:000074fc       ProcessAdminMsg            100084fc f   kitlcore:edbgprot.obj
 0001:00007860       RetransmitCfg              10008860 f   kitlcore:edbgprot.obj
 0001:00007874       TranAck                    10008874 f   kitlcore:edbgprot.obj
 0001:000078e0       ProcessRecvFrame           100088e0 f   kitlcore:edbgprot.obj
 0001:00007e58       KITLPollData               10008e58 f   kitlcore:edbgprot.obj
 0001:00009630       SerialSend                 1000a630 f   oal_kitl:kitlserial.obj
 0001:00009700       SerialRecv                 1000a700 f   oal_kitl:kitlserial.obj
 0001:00009a48       SerialEncode               1000aa48 f   oal_kitl:kitlserial.obj
 0001:00009af8       SerialDecode               1000aaf8 f   oal_kitl:kitlserial.obj
 0001:00009b10       SerialEnableInt            1000ab10 f   oal_kitl:kitlserial.obj
 0001:00009b50       SerialGetDevCfg            1000ab50 f   oal_kitl:kitlserial.obj
 0001:00009b60       SerialSetHostCfg           1000ab60 f   oal_kitl:kitlserial.obj
 0001:00009e34       Sum                        1000ae34 f   oal_kitl:kitleth.obj
 0001:00009e9c       SendARP                    1000ae9c f   oal_kitl:kitleth.obj
 0001:00009f64       EncodeIP                   1000af64 f   oal_kitl:kitleth.obj
 0001:0000a0c8       EncodeUDP                  1000b0c8 f   oal_kitl:kitleth.obj
 0001:0000a1b4       SendDHCP                   1000b1b4 f   oal_kitl:kitleth.obj
 0001:0000a3a4       RenewDHCP                  1000b3a4 f   oal_kitl:kitleth.obj
 0001:0000a3fc       DecodeDHCP                 1000b3fc f   oal_kitl:kitleth.obj
 0001:0000a640       DecodeICMP                 1000b640 f   oal_kitl:kitleth.obj
 0001:0000a770       DecodeUDP                  1000b770 f   oal_kitl:kitleth.obj
 0001:0000aa24       KitlEthDecode              1000ba24 f   oal_kitl:kitleth.obj
 0001:0000ab94       KitlEthEncode              1000bb94 f   oal_kitl:kitleth.obj
 0001:0000ac24       KitlEthSetHostCfg          1000bc24 f   oal_kitl:kitleth.obj
 0001:0000ac2c       KitlEthGetDevCfg           1000bc2c f   oal_kitl:kitleth.obj
 0001:0000ad1c       KitlEthSend                1000bd1c f   oal_kitl:kitleth.obj
 0001:0000ae90       KitlEthRecv                1000be90 f   oal_kitl:kitleth.obj
 0001:0000afd8       KitlEthEnableInt           1000bfd8 f   oal_kitl:kitleth.obj
 0001:0000b218       GetAddressDHCP             1000c218 f   oal_kitl:kitleth.obj
 0001:0000f698       PDD_SendNotification       10010698 f   fsl_rne_pdd_common_fsl_v2_pdk1_9:rndis_pdd.obj
 0001:0000f6c4       PDD_RecvNotification       100106c4 f   fsl_rne_pdd_common_fsl_v2_pdk1_9:rndis_pdd.obj
 0001:0000fd94       RegisterUSBDevice          10010d94 f   fsl_rne_pdd_common_fsl_v2_pdk1_9:rndis_pdd.obj
 0001:00010da0       CeLogMsg                   10011da0 f   usb_usbfn_mx28_fsl_v2_pdk1_9:i_pdd.obj
 0001:00010e78       GetSetupPacket             10011e78 f   usb_usbfn_mx28_fsl_v2_pdk1_9:i_pdd.obj
 0001:00010f40       InitQh0                    10011f40 f   usb_usbfn_mx28_fsl_v2_pdk1_9:i_pdd.obj
 0001:00011210       PrimeQh0ForZeroTransfer    10012210 f   usb_usbfn_mx28_fsl_v2_pdk1_9:i_pdd.obj
 0001:00011414       HandleUSBReset             10012414 f   usb_usbfn_mx28_fsl_v2_pdk1_9:i_pdd.obj
 0001:00011a08       BuildTdBufferList          10012a08 f   usb_usbfn_mx28_fsl_v2_pdk1_9:i_pdd.obj
 0001:00014d14       ?HandleUSBDeviceRegistration@@YAXXZ 10015d14 f   fsl_serial_pdd_common_fsl_v2_pdk1_9:serial_dl.obj
 0001:000152a4       ?HandleSetupPkt@@YAXPAU_USB_DEVICE_REQUEST@@PAU_EP0_REQUEST@@@Z 100162a4 f   fsl_serial_pdd_common_fsl_v2_pdk1_9:serial_dl.obj
 0001:000153d4       ?HandlePDDNotification@@YAHPAXKK@Z 100163d4 f   fsl_serial_pdd_common_fsl_v2_pdk1_9:serial_dl.obj
 0001:00016e34       InitializeTransceiver      10017e34 f   fsl_usbfn_rndiskitl_mx28_fsl_v2_pdk1_9:hwinit.obj
