 pmupdk

 Timestamp is 4f86751a (Thu Apr 12 14:24:26 2012)

 Preferred load address is 10000000

 Start         Length     Name                   Class
 0001:00000000 00000004H .CRT$XCA                CODE
 0001:00000004 00000004H .CRT$XCZ                CODE
 0001:00000008 00000004H .CRT$XIA                CODE
 0001:0000000c 00000004H .CRT$XIZ                CODE
 0001:00000010 00000004H .CRT$XPA                CODE
 0001:00000014 00000004H .CRT$XPZ                CODE
 0001:00000018 00000004H .CRT$XTA                CODE
 0001:0000001c 00000004H .CRT$XTZ                CODE
 0001:00000020 00000a5cH .rdata                  CODE
 0001:00000a7c 00000023H .rdata$debug            CODE
 0001:00000aa0 000021c0H .text                   CODE
 0001:00002c60 00000048H .xdata                  CODE
 0001:00002ca8 00000028H .idata$2                CODE
 0001:00002cd0 00000014H .idata$3                CODE
 0001:00002ce4 00000064H .idata$4                CODE
 0001:00002d48 00000016H .idata$6                CODE
 0001:00002d60 000000c9H .edata                  CODE
 0002:00000000 00000064H .idata$5                DATA
 0002:00000064 00000010H .data                   DATA
 0002:00000074 0000007cH .bss                    DATA
 0003:00000000 00000130H .pdata                  DATA

  Address         Publics by Value              Rva+Base       Lib:Object

 0000:00000000       ___safe_se_handler_table   00000000     <absolute>
 0000:00000000       ___safe_se_handler_count   00000000     <absolute>
 0001:00000000       __xc_a                     10001000     corelib0:crt0init.obj
 0001:00000004       __xc_z                     10001004     corelib0:crt0init.obj
 0001:00000008       __xi_a                     10001008     corelib0:crt0init.obj
 0001:0000000c       __xi_z                     1000100c     corelib0:crt0init.obj
 0001:00000010       __xp_a                     10001010     corelib0:crt0init.obj
 0001:00000014       __xp_z                     10001014     corelib0:crt0init.obj
 0001:00000018       __xt_a                     10001018     corelib0:crt0init.obj
 0001:0000001c       __xt_z                     1000101c     corelib0:crt0init.obj
 0001:000000d0       ??_C@_1BE@BIALNCBA@?$AA5?$AAV?$AA_?$AAD?$AAe?$AAt?$AAe?$AAc?$AAt?$AA?$AA@ 100010d0     pmupdk_mx28_fsl_v2_pdk1_9:pmupdk.obj
 0001:000000e4       ??_C@_1DC@HJMAHLNA@?$AAC?$AAP?$AAU?$AA?5?$AAc?$AAl?$AAo?$AAc?$AAk?$AA?5?$AAu?$AAp?$AA?5?$AAt?$AAo?$AA?5?$AA2?$AA6?$AA1?$AAM?$AAH?$AAz?$AA?$AN?$AA?6?$AA?$AA@ 100010e4     pmupdk_mx28_fsl_v2_pdk1_9:pmupdk.obj
 0001:00000118       ??_C@_1JE@KICEKIPI@?$AAD?$AA?3?$AA?2?$AAW?$AAI?$AAN?$AAC?$AAE?$AA6?$AA0?$AA0?$AA?2?$AAP?$AAL?$AAA?$AAT?$AAF?$AAO?$AAR?$AAM?$AA?2?$AAC?$AAO?$AAM?$AAM?$AAO?$AAN?$AA?2?$AAS?$AAR?$AAC?$AA?2@ 10001118     pmupdk_mx28_fsl_v2_pdk1_9:pmupdk.obj
 0001:000001ac       ??_C@_1CI@OHCJFJPM@?$AAE?$AAR?$AAR?$AAO?$AAR?$AA?3?$AA?5?$AA?$CF?$AAs?$AA?5?$AAl?$AAi?$AAn?$AAe?$AA?5?$AA?$CF?$AAd?$AA?3?$AA?5?$AA?$AA@ 100011ac     pmupdk_mx28_fsl_v2_pdk1_9:pmupdk.obj
 0001:000001d8       ??_C@_1FO@DIONKJJE@?$AAE?$AAr?$AAr?$AAo?$AAr?$AA?5?$AAt?$AAh?$AAe?$AA?5?$AAc?$AAo?$AAd?$AAe?$AA?5?$AAs?$AAh?$AAo?$AAu?$AAl?$AAd?$AA?5?$AAn?$AAe?$AAv?$AAe?$AAr?$AA?5?$AAb?$AAe?$AAe?$AAn@ 100011d8     pmupdk_mx28_fsl_v2_pdk1_9:pmupdk.obj
 0001:00000238       ??_C@_1M@BAKKPHMH@?$AAB?$AAK?$AAL?$AA1?$AA?3?$AA?$AA@ 10001238     pmupdk_mx28_fsl_v2_pdk1_9:pmupdk.obj
 0001:00000248       ??_C@_1FO@MFHPPNHH@?$AAP?$AAo?$AAw?$AAe?$AAr?$AAA?$AAl?$AAl?$AAo?$AAc?$AA?3?$AA?3?$AAM?$AAm?$AAM?$AAa?$AAp?$AAI?$AAo?$AAS?$AAp?$AAa?$AAc?$AAe?$AA?5?$AAp?$AAv?$AA_?$AAH?$AAW?$AAr?$AAe@ 10001248     pmupdk_mx28_fsl_v2_pdk1_9:pmupdk.obj
 0001:000002a8       ??_C@_1GG@CLCOFEMN@?$AAP?$AAo?$AAw?$AAe?$AAr?$AAA?$AAl?$AAl?$AAo?$AAc?$AA?3?$AA?3?$AAM?$AAm?$AAM?$AAa?$AAp?$AAI?$AAo?$AAS?$AAp?$AAa?$AAc?$AAe?$AA?5?$AAp?$AAv?$AA_?$AAH?$AAW?$AAr?$AAe@ 100012a8     pmupdk_mx28_fsl_v2_pdk1_9:pmupdk.obj
 0001:00000310       ??_C@_1GE@BOKLGNKI@?$AAP?$AAo?$AAw?$AAe?$AAr?$AAA?$AAl?$AAl?$AAo?$AAc?$AA?3?$AA?3?$AAM?$AAm?$AAM?$AAa?$AAp?$AAI?$AAo?$AAS?$AAp?$AAa?$AAc?$AAe?$AA?5?$AAp?$AAv?$AA_?$AAH?$AAW?$AAr?$AAe@ 10001310     pmupdk_mx28_fsl_v2_pdk1_9:pmupdk.obj
 0001:00000378       ??_C@_1GG@BCCPAPFD@?$AAP?$AAo?$AAw?$AAe?$AAr?$AAA?$AAl?$AAl?$AAo?$AAc?$AA?3?$AA?3?$AAM?$AAm?$AAM?$AAa?$AAp?$AAI?$AAo?$AAS?$AAp?$AAa?$AAc?$AAe?$AA?5?$AAp?$AAv?$AA_?$AAH?$AAW?$AAr?$AAe@ 10001378     pmupdk_mx28_fsl_v2_pdk1_9:pmupdk.obj
 0001:000003e0       ??_C@_1GC@OAJHOHHF@?$AAP?$AAo?$AAw?$AAe?$AAr?$AAA?$AAl?$AAl?$AAo?$AAc?$AA?3?$AA?3?$AAM?$AAm?$AAM?$AAa?$AAp?$AAI?$AAo?$AAS?$AAp?$AAa?$AAc?$AAe?$AA?5?$AAp?$AAv?$AA_?$AAH?$AAW?$AAr?$AAe@ 100013e0     pmupdk_mx28_fsl_v2_pdk1_9:pmupdk.obj
 0001:00000448       ??_C@_1GI@DJNPACAK@?$AAU?$AAS?$AAB?$AA?5?$AAc?$AAu?$AAr?$AAr?$AAe?$AAn?$AAt?$AA?5?$AA1?$AA0?$AA0?$AAm?$AAA?$AA?5?$AAl?$AAi?$AAm?$AAi?$AAt?$AAa?$AAt?$AAi?$AAo?$AAn?$AA?0?$AA?5?$AAc?$AAa@ 10001448     pmupdk_mx28_fsl_v2_pdk1_9:pmupdk.obj
 0001:000004b0       ??_C@_1FA@OBBAOGKI@?$AAE?$AAx?$AAc?$AAe?$AAp?$AAt?$AAi?$AAo?$AAn?$AA?5?$AAi?$AAn?$AA?5?$AAI?$AAO?$AAC?$AAT?$AAL?$AA_?$AAP?$AAO?$AAW?$AAE?$AAR?$AA_?$AAC?$AAA?$AAP?$AAA?$AAB?$AAI?$AAL@ 100014b0     pmupdk_mx28_fsl_v2_pdk1_9:pmupdk.obj
 0001:00000500       ??_C@_1DO@BEHPFKBH@?$AAE?$AAx?$AAc?$AAe?$AAp?$AAt?$AAi?$AAo?$AAn?$AA?5?$AAi?$AAn?$AA?5?$AAI?$AAO?$AAC?$AAT?$AAL?$AA_?$AAP?$AAO?$AAW?$AAE?$AAR?$AA_?$AAS?$AAE?$AAT?$AA?$AN?$AA?6?$AA?$AA@ 10001500     pmupdk_mx28_fsl_v2_pdk1_9:pmupdk.obj
 0001:00000540       ??_C@_1BM@JLKNKPKK@?$AAP?$AAM?$AAI?$AA_?$AAI?$AAO?$AAC?$AAo?$AAn?$AAt?$AAr?$AAo?$AAl?$AA?$AA@ 10001540     pmupdk_mx28_fsl_v2_pdk1_9:pmupdk.obj
 0001:0000055c       ??_C@_1DM@NEDGHAEP@?$AA?$CF?$AAs?$AA?3?$AA?5?$AAU?$AAn?$AAr?$AAe?$AAc?$AAo?$AAg?$AAn?$AAi?$AAz?$AAe?$AAd?$AA?5?$AAI?$AAO?$AAC?$AAT?$AAL?$AA?5?$AA0?$AAx?$AA?$CF?$AAX?$AA?$AN?$AA?6?$AA?$AA@ 1000155c     pmupdk_mx28_fsl_v2_pdk1_9:pmupdk.obj
 0001:00000598       ??_C@_1HE@PINGLLJM@?$AAP?$AAo?$AAw?$AAe?$AAr?$AA?5?$AAi?$AAn?$AAi?$AAt?$AAi?$AAa?$AAl?$AAi?$AAz?$AAa?$AAt?$AAi?$AAo?$AAn?$AA?0?$AA?5?$AA1?$AA0?$AA0?$AAm?$AAA?$AA?5?$AAc?$AAu?$AAr?$AAr@ 10001598     pmupdk_mx28_fsl_v2_pdk1_9:pmupdk.obj
 0001:00000610       ??_C@_1FO@JNPLGIJN@?$AAP?$AAo?$AAw?$AAe?$AAr?$AA?5?$AAi?$AAn?$AAi?$AAt?$AAi?$AAa?$AAl?$AAi?$AAz?$AAa?$AAt?$AAi?$AAo?$AAn?$AA?0?$AA?5?$AA1?$AA0?$AA0?$AAm?$AAA?$AA?5?$AAc?$AAu?$AAr?$AAr@ 10001610     pmupdk_mx28_fsl_v2_pdk1_9:pmupdk.obj
 0001:00000670       ??_C@_1GG@JKLFBLAH@?$AAE?$AAR?$AAR?$AAO?$AAR?$AA?3?$AA?5?$AAF?$AAa?$AAi?$AAl?$AAe?$AAd?$AA?5?$AAt?$AAo?$AA?5?$AAc?$AAr?$AAe?$AAa?$AAt?$AAe?$AA?5?$AAg?$AA_?$AAh?$AAV?$AAD?$AAD?$AAI?$AAO@ 10001670     pmupdk_mx28_fsl_v2_pdk1_9:pmupdk.obj
 0001:000006d8       ??_C@_1HI@PADPELOP@?$AAE?$AAR?$AAR?$AAO?$AAR?$AA?3?$AA?5?$AAF?$AAa?$AAi?$AAl?$AAe?$AAd?$AA?5?$AAt?$AAo?$AA?5?$AAo?$AAb?$AAt?$AAa?$AAi?$AAn?$AA?5?$AAs?$AAy?$AAs?$AAi?$AAn?$AAt?$AAr?$AA?5@ 100016d8     pmupdk_mx28_fsl_v2_pdk1_9:pmupdk.obj
 0001:00000750       ??_C@_1GE@EKHAEKJM@?$AAE?$AAR?$AAR?$AAO?$AAR?$AA?3?$AA?5?$AAF?$AAa?$AAi?$AAl?$AAe?$AAd?$AA?5?$AAt?$AAo?$AA?5?$AAc?$AAr?$AAe?$AAa?$AAt?$AAe?$AA?5?$AAg?$AA_?$AAh?$AAV?$AAD?$AAD?$AAx?$AAB@ 10001750     pmupdk_mx28_fsl_v2_pdk1_9:pmupdk.obj
 0001:000007b8       ??_C@_1FC@GABOBIPH@?$AAP?$AAo?$AAw?$AAe?$AAr?$AAI?$AAR?$AAQ?$AAH?$AAa?$AAn?$AAd?$AAl?$AAe?$AAr?$AA?5?$AA?3?$AA?5?$AAC?$AAr?$AAe?$AAa?$AAt?$AAe?$AAT?$AAh?$AAr?$AAe?$AAa?$AAd?$AA?5?$AAF@ 100017b8     pmupdk_mx28_fsl_v2_pdk1_9:pmupdk.obj
 0001:00000810       ??_C@_1FK@NEHBOCMM@?$AAP?$AAo?$AAw?$AAe?$AAr?$AAH?$AAa?$AAn?$AAd?$AAl?$AAe?$AAr?$AA_?$AAt?$AAh?$AAr?$AAe?$AAa?$AAd?$AA?5?$AA?3?$AA?5?$AAC?$AAr?$AAe?$AAa?$AAt?$AAe?$AAT?$AAh?$AAr?$AAe@ 10001810     pmupdk_mx28_fsl_v2_pdk1_9:pmupdk.obj
 0001:0000086c       ??_C@_1DO@GDLJAKBF@?$AAE?$AAr?$AAr?$AAo?$AAr?$AA?5?$AAi?$AAn?$AAi?$AAt?$AAi?$AAa?$AAl?$AAi?$AAz?$AAi?$AAn?$AAg?$AA?5?$AAi?$AAn?$AAt?$AAe?$AAr?$AAr?$AAu?$AAp?$AAt?$AA?6?$AA?$AN?$AA?$AA@ 1000186c     pmupdk_mx28_fsl_v2_pdk1_9:pmupdk.obj
 0001:000008b0       ??_C@_1HE@CCOCJGOM@?$AAE?$AAR?$AAR?$AAO?$AAR?$AA?3?$AA?5?$AAF?$AAa?$AAi?$AAl?$AAe?$AAd?$AA?5?$AAt?$AAo?$AA?5?$AAo?$AAb?$AAt?$AAa?$AAi?$AAn?$AA?5?$AAs?$AAy?$AAs?$AAi?$AAn?$AAt?$AAr?$AA?5@ 100018b0     pmupdk_mx28_fsl_v2_pdk1_9:pmupdk.obj
 0001:00000928       ??_C@_1FM@GGDEAHCM@?$AAE?$AAR?$AAR?$AAO?$AAR?$AA?3?$AA?5?$AAF?$AAa?$AAi?$AAl?$AAe?$AAd?$AA?5?$AAt?$AAo?$AA?5?$AAc?$AAr?$AAe?$AAa?$AAt?$AAe?$AA?5?$AA5?$AAV?$AA?5?$AAi?$AAn?$AAt?$AAe?$AAr@ 10001928     pmupdk_mx28_fsl_v2_pdk1_9:pmupdk.obj
 0001:00000988       ??_C@_1GM@PIDPBEJB@?$AAU?$AAS?$AAB?$AA?5?$AAc?$AAl?$AAi?$AAe?$AAn?$AAt?$AA?5?$AAd?$AAr?$AAi?$AAv?$AAe?$AAr?$AA?5?$AAn?$AAo?$AAt?$AA?5?$AAe?$AAx?$AAi?$AAs?$AAt?$AA?0?$AAc?$AAa?$AAn?$AAc@ 10001988     pmupdk_mx28_fsl_v2_pdk1_9:pmupdk.obj
 0001:000009f4       ??_C@_1DO@NBJKIEGO@?$AAW?$AAa?$AAi?$AAt?$AA?5?$AAU?$AAS?$AAB?$AA?5?$AAe?$AAn?$AAu?$AAm?$AAe?$AAr?$AAa?$AAt?$AAi?$AAo?$AAn?$AA?5?$AAd?$AAo?$AAn?$AAe?$AA?4?$AA?4?$AA?4?$AA?$AN?$AA?6?$AA?$AA@ 100019f4     pmupdk_mx28_fsl_v2_pdk1_9:pmupdk.obj
 0001:00000a38       ??_C@_1EE@LMKEJLG@?$AAP?$AAo?$AAw?$AAe?$AAr?$AAI?$AAn?$AAi?$AAt?$AA?5?$AA?3?$AA?3?$AA?5?$AAP?$AAo?$AAw?$AAe?$AAr?$AAA?$AAl?$AAl?$AAo?$AAc?$AA?$CI?$AA?$CJ?$AA?5?$AAf?$AAa?$AAi?$AAl?$AAe?$AAd@ 10001a38     pmupdk_mx28_fsl_v2_pdk1_9:pmupdk.obj
 0001:00000aa0       IsUSBDeviceDriverEnable    10001aa0 f   bsppmu.obj
 0001:00000aa8       Is5VFromVbus               10001aa8 f   bsppmu.obj
 0001:00000c2c       PmuIoctlThermalSet         10001c2c f   pmupdk_mx28_fsl_v2_pdk1_9:pmupdk.obj
 0001:00000d00       PmuIoctlThermalGet         10001d00 f   pmupdk_mx28_fsl_v2_pdk1_9:pmupdk.obj
 0001:00000e1c       PMI_Deinit                 10001e1c f   pmupdk_mx28_fsl_v2_pdk1_9:pmupdk.obj
 0001:00000e30       PMI_Open                   10001e30 f   pmupdk_mx28_fsl_v2_pdk1_9:pmupdk.obj
 0001:00000e38       PMI_Close                  10001e38 f   pmupdk_mx28_fsl_v2_pdk1_9:pmupdk.obj
 0001:00000e40       PMI_PowerUp                10001e40 f   pmupdk_mx28_fsl_v2_pdk1_9:pmupdk.obj
 0001:00000e44       PMI_PowerDown              10001e44 f   pmupdk_mx28_fsl_v2_pdk1_9:pmupdk.obj
 0001:000014dc       PmuIoctlSetVddd            100024dc f   pmupdk_mx28_fsl_v2_pdk1_9:pmupdk.obj
 0001:00001728       PMI_IOControl              10002728 f   pmupdk_mx28_fsl_v2_pdk1_9:pmupdk.obj
 0001:000027dc       PMI_Init                   100037dc f   pmupdk_mx28_fsl_v2_pdk1_9:pmupdk.obj
 0001:000027fc       EventModify                100037fc f   coredll:COREDLL.dll
 0001:0000280c       NKDbgPrintfW               1000380c f   coredll:COREDLL.dll
 0001:0000281c       Sleep                      1000381c f   coredll:COREDLL.dll
 0001:0000282c       CloseHandle                1000382c f   coredll:COREDLL.dll
 0001:0000283c       SetDevicePower             1000383c f   coredll:COREDLL.dll
 0001:0000284c       InterruptDone              1000384c f   coredll:COREDLL.dll
 0001:0000285c       WaitForSingleObject        1000385c f   coredll:COREDLL.dll
 0001:0000286c       DisableThreadLibraryCalls  1000386c f   coredll:COREDLL.dll
 0001:0000287c       SetSystemPowerState        1000387c f   coredll:COREDLL.dll
 0001:0000288c       CeSetThreadPriority        1000388c f   coredll:COREDLL.dll
 0001:0000289c       CreateThread               1000389c f   coredll:COREDLL.dll
 0001:000028ac       InterruptInitialize        100038ac f   coredll:COREDLL.dll
 0001:000028bc       KernelIoControl            100038bc f   coredll:COREDLL.dll
 0001:000028cc       CreateEventW               100038cc f   coredll:COREDLL.dll
 0001:000028dc       MmUnmapIoSpace             100038dc f   ceddk:CEDDK.dll
 0001:000028ec       StallExecution             100038ec f   ceddk:CEDDK.dll
 0001:000028fc       MmMapIoSpace               100038fc f   ceddk:CEDDK.dll
 0001:0000290c       DllMain                    1000390c f   corelib0:dllmain.obj
 0001:00002a28       _DllMainCRTStartup         10003a28 f   corelib0:pegdmain.obj
 0001:00002b20       _cexit                     10003b20 f   corelib0:cexit.obj
 0001:00002b3c       _initterm                  10003b3c f   corelib0:crt0dat.obj
 0001:00002b70       _cinit                     10003b70 f   corelib0:crt0dat.obj
 0001:00002ba4       __security_init_cookie     10003ba4 f   corelib0:seccinit.obj
 0001:00002c00       __C_specific_handler       10003c00 f   corelib1:COREDLL.dll
 0001:00002c10       memset                     10003c10 f   corelib1:COREDLL.dll
 0001:00002c20       _XcptFilter                10003c20 f   corelib1:COREDLL.dll
 0001:00002c30       free                       10003c30 f   corelib1:COREDLL.dll
 0001:00002c40       __security_gen_cookie2     10003c40 f   corelib1:COREDLL.dll
 0001:00002c50       TerminateProcess           10003c50 f   coredll:COREDLL.dll
 0001:00002ca8       __IMPORT_DESCRIPTOR_COREDLL 10003ca8     coredll:COREDLL.dll
 0001:00002cbc       __IMPORT_DESCRIPTOR_CEDDK  10003cbc     ceddk:CEDDK.dll
 0001:00002cd0       __NULL_IMPORT_DESCRIPTOR   10003cd0     coredll:COREDLL.dll
 0002:00000000       __imp_StallExecution       10004000     ceddk:CEDDK.dll
 0002:00000004       __imp_MmUnmapIoSpace       10004004     ceddk:CEDDK.dll
 0002:00000008       __imp_MmMapIoSpace         10004008     ceddk:CEDDK.dll
 0002:0000000c       \177CEDDK_NULL_THUNK_DATA  1000400c     ceddk:CEDDK.dll
 0002:00000010       __imp_SetDevicePower       10004010     coredll:COREDLL.dll
 0002:00000014       __imp_InterruptDone        10004014     coredll:COREDLL.dll
 0002:00000018       __imp_WaitForSingleObject  10004018     coredll:COREDLL.dll
 0002:0000001c       __imp_DisableThreadLibraryCalls 1000401c     coredll:COREDLL.dll
 0002:00000020       __imp_SetSystemPowerState  10004020     coredll:COREDLL.dll
 0002:00000024       __imp_CloseHandle          10004024     coredll:COREDLL.dll
 0002:00000028       __imp_CreateThread         10004028     coredll:COREDLL.dll
 0002:0000002c       __imp_InterruptInitialize  1000402c     coredll:COREDLL.dll
 0002:00000030       __imp_KernelIoControl      10004030     coredll:COREDLL.dll
 0002:00000034       __imp_CreateEventW         10004034     coredll:COREDLL.dll
 0002:00000038       __imp_Sleep                10004038     coredll:COREDLL.dll
 0002:0000003c       __imp_NKDbgPrintfW         1000403c     coredll:COREDLL.dll
 0002:00000040       __imp_CeSetThreadPriority  10004040     coredll:COREDLL.dll
 0002:00000044       __imp_EventModify          10004044     coredll:COREDLL.dll
 0002:00000048       __imp___C_specific_handler 10004048     corelib1:COREDLL.dll
 0002:0000004c       __imp_memset               1000404c     corelib1:COREDLL.dll
 0002:00000050       __imp__XcptFilter          10004050     corelib1:COREDLL.dll
 0002:00000054       __imp_free                 10004054     corelib1:COREDLL.dll
 0002:00000058       __imp___security_gen_cookie2 10004058     corelib1:COREDLL.dll
 0002:0000005c       __imp_TerminateProcess     1000405c     coredll:COREDLL.dll
 0002:00000060       \177COREDLL_NULL_THUNK_DATA 10004060     coredll:COREDLL.dll
 0002:0000006c       __security_cookie          1000406c     corelib0:seccinit.obj
 0002:00000070       __security_cookie_complement 10004070     corelib0:seccinit.obj
 0002:000000e0       _exitflag                  100040e0     corelib0:cexit.obj
 0002:000000e4       __onexitend                100040e4     <common>
 0002:000000e8       __onexitbegin              100040e8     <common>
 0002:000000ec       _pRawDllMain               100040ec     <common>

 entry point at        0001:00002a28

 Static symbols

 0001:00000ab0       PowerDealloc               10001ab0 f   pmupdk_mx28_fsl_v2_pdk1_9:pmupdk.obj
 0001:00000b38       PowerDeInit                10001b38 f   pmupdk_mx28_fsl_v2_pdk1_9:pmupdk.obj
 0001:00000d68       PowerOffChip               10001d68 f   pmupdk_mx28_fsl_v2_pdk1_9:pmupdk.obj
 0001:00000e48       VDDDBOHandler              10001e48 f   pmupdk_mx28_fsl_v2_pdk1_9:pmupdk.obj
 0001:00000ea0       VDDIOBOHandler             10001ea0 f   pmupdk_mx28_fsl_v2_pdk1_9:pmupdk.obj
 0001:00000ef8       VDDABOHandler              10001ef8 f   pmupdk_mx28_fsl_v2_pdk1_9:pmupdk.obj
 0001:00000f50       PowerAlloc                 10001f50 f   pmupdk_mx28_fsl_v2_pdk1_9:pmupdk.obj
 0001:000010fc       PowerStart4p2HW            100020fc f   pmupdk_mx28_fsl_v2_pdk1_9:pmupdk.obj
 0001:00001434       PowerGetLimit              10002434 f   pmupdk_mx28_fsl_v2_pdk1_9:pmupdk.obj
 0001:00001ce0       PowerStart4p2              10002ce0 f   pmupdk_mx28_fsl_v2_pdk1_9:pmupdk.obj
 0001:00001de4       PowerExecuteBatteryTo5VoltsHandoff 10002de4 f   pmupdk_mx28_fsl_v2_pdk1_9:pmupdk.obj
 0001:00001edc       PowerIRQHandler            10002edc f   pmupdk_mx28_fsl_v2_pdk1_9:pmupdk.obj
 0001:000020d4       PowerInitHandle            100030d4 f   pmupdk_mx28_fsl_v2_pdk1_9:pmupdk.obj
 0001:0000221c       PowerInit                  1000321c f   pmupdk_mx28_fsl_v2_pdk1_9:pmupdk.obj
 0001:0000292c       _DllMainCRTStartupHelper   1000392c f   corelib0:pegdmain.obj
 0001:00002a58       doexit                     10003a58 f   corelib0:cexit.obj
