 csp_serial

 Timestamp is 4f86751b (Thu Apr 12 14:24:27 2012)

 Preferred load address is 10000000

 Start         Length     Name                   Class
 0001:00000000 00000004H .CRT$XCA                CODE
 0001:00000004 00000004H .CRT$XCZ                CODE
 0001:00000008 00000004H .CRT$XIA                CODE
 0001:0000000c 00000004H .CRT$XIZ                CODE
 0001:00000010 00000004H .CRT$XPA                CODE
 0001:00000014 00000004H .CRT$XPZ                CODE
 0001:00000018 00000004H .CRT$XTA                CODE
 0001:0000001c 00000004H .CRT$XTZ                CODE
 0001:00000020 000003bcH .rdata                  CODE
 0001:000003dc 00000027H .rdata$debug            CODE
 0001:00000404 00006458H .text                   CODE
 0001:0000685c 00000184H .xdata                  CODE
 0001:000069e0 0000003cH .idata$2                CODE
 0001:00006a1c 00000014H .idata$3                CODE
 0001:00006a30 000000f4H .idata$4                CODE
 0001:00006b24 0000011cH .idata$6                CODE
 0001:00006c40 00000136H .edata                  CODE
 0002:00000000 000000f4H .idata$5                DATA
 0002:000000f4 00000008H .data                   DATA
 0002:000000fc 00000018H .bss                    DATA
 0003:00000000 00000360H .pdata                  DATA

  Address         Publics by Value              Rva+Base       Lib:Object

 0000:00000000       ___safe_se_handler_table   00000000     <absolute>
 0000:00000000       ___safe_se_handler_count   00000000     <absolute>
 0001:00000000       __xc_a                     10001000     corelib0:crt0init.obj
 0001:00000004       __xc_z                     10001004     corelib0:crt0init.obj
 0001:00000008       __xi_a                     10001008     corelib0:crt0init.obj
 0001:0000000c       __xi_z                     1000100c     corelib0:crt0init.obj
 0001:00000010       __xp_a                     10001010     corelib0:crt0init.obj
 0001:00000014       __xp_z                     10001014     corelib0:crt0init.obj
 0001:00000018       __xt_a                     10001018     corelib0:crt0init.obj
 0001:0000001c       __xt_z                     1000101c     corelib0:crt0init.obj
 0001:000000d0       ??_C@_1O@BJCLCNNN@?$AAu?$AAs?$AAe?$AAD?$AAM?$AAA?$AA?$AA@ 100010d0     com_mdd2_common_fsl_v2_pdk1_9:mdd.obj
 0001:000000e0       ??_C@_1BI@BHLBGEOK@?$AAP?$AAr?$AAi?$AAo?$AAr?$AAi?$AAt?$AAy?$AA2?$AA5?$AA6?$AA?$AA@ 100010e0     com_mdd2_common_fsl_v2_pdk1_9:mdd.obj
 0001:000000f8       ??_C@_1CC@KMPFMANC@?$AAD?$AAe?$AAv?$AAi?$AAc?$AAe?$AAA?$AAr?$AAr?$AAa?$AAy?$AAI?$AAn?$AAd?$AAe?$AAx?$AA?$AA@ 100010f8     com_mdd2_common_fsl_v2_pdk1_9:mdd.obj
 0001:00000120       IoVTbl                     10001120     serialapp_common_fsl_v2_pdk1_9:serial.obj
 0001:00000198       ??_C@_1M@PEPOCCHH@?$AAI?$AAo?$AAL?$AAe?$AAn?$AA?$AA@ 10001198     serialapp_common_fsl_v2_pdk1_9:serial.obj
 0001:000001a4       ??_C@_1O@JMCNHCBG@?$AAI?$AAo?$AAB?$AAa?$AAs?$AAe?$AA?$AA@ 100011a4     serialapp_common_fsl_v2_pdk1_9:serial.obj
 0001:000001b4       ??_C@_1DO@LCNCLJKJ@?$AAS?$AAe?$AAr?$AAI?$AAn?$AAi?$AAt?$AA?5?$AA?9?$AA?5?$AAS?$AAL?$AA_?$AAI?$AAn?$AAi?$AAt?$AA?$CI?$AA?$CJ?$AA?5?$AAf?$AAa?$AAi?$AAl?$AAe?$AAd?$AA?$CB?$AA?$CB?$AA?$AN?$AA?6?$AA?$AA@ 100011b4     serialapp_common_fsl_v2_pdk1_9:serial.obj
 0001:000001f8       ??_C@_1KM@BDKHNHBA@?$AAD?$AA?3?$AA?2?$AAW?$AAI?$AAN?$AAC?$AAE?$AA6?$AA0?$AA0?$AA?2?$AAP?$AAL?$AAA?$AAT?$AAF?$AAO?$AAR?$AAM?$AA?2?$AAC?$AAO?$AAM?$AAM?$AAO?$AAN?$AA?2?$AAS?$AAR?$AAC?$AA?2@ 100011f8     serialapp_common_fsl_v2_pdk1_9:serial.obj
 0001:000002a4       ??_C@_1CI@OHCJFJPM@?$AAE?$AAR?$AAR?$AAO?$AAR?$AA?3?$AA?5?$AA?$CF?$AAs?$AA?5?$AAl?$AAi?$AAn?$AAe?$AA?5?$AA?$CF?$AAd?$AA?3?$AA?5?$AA?$AA@ 100012a4     serialapp_common_fsl_v2_pdk1_9:serial.obj
 0001:000002cc       ??_C@_1DE@MPEGKKCD@?$AAC?$AAa?$AAn?$AAn?$AAo?$AAt?$AA?5?$AAo?$AAb?$AAt?$AAa?$AAi?$AAn?$AA?5?$AAU?$AAA?$AAR?$AAT?$AA?5?$AAI?$AAR?$AAQ?$AA?$CB?$AA?$AN?$AA?6?$AA?$AA@ 100012cc     serialapp_common_fsl_v2_pdk1_9:serial.obj
 0001:00000300       ??_C@_1LA@MCEHGLEH@?$AAD?$AA?3?$AA?2?$AAW?$AAI?$AAN?$AAC?$AAE?$AA6?$AA0?$AA0?$AA?2?$AAP?$AAL?$AAA?$AAT?$AAF?$AAO?$AAR?$AAM?$AA?2?$AAC?$AAO?$AAM?$AAM?$AAO?$AAN?$AA?2?$AAS?$AAR?$AAC?$AA?2@ 10001300     serialapp_common_fsl_v2_pdk1_9:serialhw.obj
 0001:000003b0       ??_C@_1CM@FEGNEJKN@?$AAA?$AAU?$AAA?$AAR?$AAT?$AA?5?$AAI?$AAn?$AAd?$AAe?$AAx?$AA?5?$AAi?$AAn?$AAv?$AAa?$AAl?$AAi?$AAd?$AA?$AN?$AA?6?$AA?$AA@ 100013b0     serialapp_common_fsl_v2_pdk1_9:serialhw.obj
 0001:00000404       BSPUartConfigureGPIO       10001404 f   bspserial.obj
 0001:00000618       BSPSerGetDMARequest        10001618 f   bspserial.obj
 0001:000006a4       BSPGetDMABuffSize          100016a4 f   bspserial.obj
 0001:000006b8       BSPUartGetDMAIrq           100016b8 f   bspserial.obj
 0001:00000744       BSPUartGetIndex            10001744 f   bspserial.obj
 0001:000007a4       DllEntry                   100017a4 f   com_mdd2_common_fsl_v2_pdk1_9:mdd.obj
 0001:000007bc       DoTxData                   100017bc f   com_mdd2_common_fsl_v2_pdk1_9:mdd.obj
 0001:00000918       StopDispatchThread         10001918 f   com_mdd2_common_fsl_v2_pdk1_9:mdd.obj
 0001:000009ac       ApplyDCB                   100019ac f   com_mdd2_common_fsl_v2_pdk1_9:mdd.obj
 0001:00000c58       COM_PreClose               10001c58 f   com_mdd2_common_fsl_v2_pdk1_9:mdd.obj
 0001:00000d1c       COM_Close                  10001d1c f   com_mdd2_common_fsl_v2_pdk1_9:mdd.obj
 0001:00000e40       ProcessExiting             10001e40 f   com_mdd2_common_fsl_v2_pdk1_9:mdd.obj
 0001:00000e74       COM_PreDeinit              10001e74 f   com_mdd2_common_fsl_v2_pdk1_9:mdd.obj
 0001:00000f04       COM_Deinit                 10001f04 f   com_mdd2_common_fsl_v2_pdk1_9:mdd.obj
 0001:0000102c       COM_Read                   1000202c f   com_mdd2_common_fsl_v2_pdk1_9:mdd.obj
 0001:00001388       COM_Seek                   10002388 f   com_mdd2_common_fsl_v2_pdk1_9:mdd.obj
 0001:00001390       COM_PowerUp                10002390 f   com_mdd2_common_fsl_v2_pdk1_9:mdd.obj
 0001:000013d0       COM_PowerDown              100023d0 f   com_mdd2_common_fsl_v2_pdk1_9:mdd.obj
 0001:00001410       WaitCommEvent_mdd          10002410 f   com_mdd2_common_fsl_v2_pdk1_9:mdd.obj
 0001:00001520       EvaluateEventFlag          10002520 f   com_mdd2_common_fsl_v2_pdk1_9:mdd.obj
 0001:000015c8       COM_IOControl              100025c8 f   com_mdd2_common_fsl_v2_pdk1_9:mdd.obj
 0001:00001f70       SerialEventHandler         10002f70 f   com_mdd2_common_fsl_v2_pdk1_9:mdd.obj
 0001:00002344       StartDispatchThread        10003344 f   com_mdd2_common_fsl_v2_pdk1_9:mdd.obj
 0001:000023d4       COM_Init                   100033d4 f   com_mdd2_common_fsl_v2_pdk1_9:mdd.obj
 0001:000026a8       COM_Open                   100036a8 f   com_mdd2_common_fsl_v2_pdk1_9:mdd.obj
 0001:00002954       COM_Write                  10003954 f   com_mdd2_common_fsl_v2_pdk1_9:mdd.obj
 0001:00002b0c       EventModify                10003b0c f   coredll:COREDLL.dll
 0001:00002b1c       DisableThreadLibraryCalls  10003b1c f   coredll:COREDLL.dll
 0001:00002b2c       LeaveCriticalSection       10003b2c f   coredll:COREDLL.dll
 0001:00002b3c       EnterCriticalSection       10003b3c f   coredll:COREDLL.dll
 0001:00002b4c       InterruptDisable           10003b4c f   coredll:COREDLL.dll
 0001:00002b5c       InterruptDone              10003b5c f   coredll:COREDLL.dll
 0001:00002b6c       CloseHandle                10003b6c f   coredll:COREDLL.dll
 0001:00002b7c       Sleep                      10003b7c f   coredll:COREDLL.dll
 0001:00002b8c       WaitForSingleObject        10003b8c f   coredll:COREDLL.dll
 0001:00002b9c       CeSetThreadPriority        10003b9c f   coredll:COREDLL.dll
 0001:00002bac       CeGetThreadPriority        10003bac f   coredll:COREDLL.dll
 0001:00002bbc       SetLastError               10003bbc f   coredll:COREDLL.dll
 0001:00002bcc       LocalFree                  10003bcc f   coredll:COREDLL.dll
 0001:00002bdc       DeleteCriticalSection      10003bdc f   coredll:COREDLL.dll
 0001:00002bec       SetThreadPriority          10003bec f   coredll:COREDLL.dll
 0001:00002bfc       InterlockedDecrement       10003bfc f   coredll:COREDLL.dll
 0001:00002c0c       GetTickCount               10003c0c f   coredll:COREDLL.dll
 0001:00002c1c       CeSafeCopyMemory           10003c1c f   coredll:COREDLL.dll
 0001:00002c2c       InterlockedIncrement       10003c2c f   coredll:COREDLL.dll
 0001:00002c3c       InterlockedExchange        10003c3c f   coredll:COREDLL.dll
 0001:00002c4c       InterlockedCompareExchange 10003c4c f   coredll:COREDLL.dll
 0001:00002c5c       ExitThread                 10003c5c f   coredll:COREDLL.dll
 0001:00002c6c       CreateThread               10003c6c f   coredll:COREDLL.dll
 0001:00002c7c       InterruptInitialize        10003c7c f   coredll:COREDLL.dll
 0001:00002c8c       RegCloseKey                10003c8c f   coredll:COREDLL.dll
 0001:00002c9c       RegQueryValueExW           10003c9c f   coredll:COREDLL.dll
 0001:00002cac       OpenDeviceKey              10003cac f   coredll:COREDLL.dll
 0001:00002cbc       CreateEventW               10003cbc f   coredll:COREDLL.dll
 0001:00002ccc       InitializeCriticalSection  10003ccc f   coredll:COREDLL.dll
 0001:00002cdc       LocalAlloc                 10003cdc f   coredll:COREDLL.dll
 0001:00002cec       CeFreeAsynchronousBuffer   10003cec f   coredll:COREDLL.dll
 0001:00002cfc       CeAllocAsynchronousBuffer  10003cfc f   coredll:COREDLL.dll
 0001:00002d0c       DDKIomuxSetPadConfig       10003d0c f   cspddk:CSPDDK.dll
 0001:00002d1c       DDKIomuxSetPinMux          10003d1c f   cspddk:CSPDDK.dll
 0001:00002d2c       _DllEntryCRTStartup        10003d2c f   corelib0:pegdentry.obj
 0001:00002d74       __GSHandlerCheckCommon     10003d74 f   corelib0:gshandler.obj
 0001:00002db0       __GSHandlerCheck           10003db0 f   corelib0:gshandler.obj
 0001:00002dd4       __security_init_cookie     10003dd4 f   corelib0:seccinit.obj
 0001:00002e30       __security_check_cookie    10003e30 f   corelib0:armsecgs.obj
 0001:00002e44       __gsfailure                10003e44 f   corelib0:armsecgs.obj
 0001:00002f50       _cexit                     10003f50 f   corelib0:cexit.obj
 0001:00002f6c       _initterm                  10003f6c f   corelib0:crt0dat.obj
 0001:00002fa0       _cinit                     10003fa0 f   corelib0:crt0dat.obj
 0001:00002fd4       memcpy                     10003fd4 f   corelib1:COREDLL.dll
 0001:00002fe4       memset                     10003fe4 f   corelib1:COREDLL.dll
 0001:00002ff4       memmove                    10003ff4 f   corelib1:COREDLL.dll
 0001:00003004       __security_gen_cookie2     10004004 f   corelib1:COREDLL.dll
 0001:00003014       __report_gsfailure         10004014 f   corelib1:COREDLL.dll
 0001:00003024       free                       10004024 f   corelib1:COREDLL.dll
 0001:00003034       MapDMABuffers              10004034 f   serialapp_common_fsl_v2_pdk1_9:serial.obj
 0001:000030dc       UnmapDMABuffers            100040dc f   serialapp_common_fsl_v2_pdk1_9:serial.obj
 0001:0000316c       MapDMADescriptors          1000416c f   serialapp_common_fsl_v2_pdk1_9:serial.obj
 0001:0000320c       UnmapDMADescriptors        1000420c f   serialapp_common_fsl_v2_pdk1_9:serial.obj
 0001:0000329c       InitDMA                    1000429c f   serialapp_common_fsl_v2_pdk1_9:serial.obj
 0001:00003310       DeInitDMA                  10004310 f   serialapp_common_fsl_v2_pdk1_9:serial.obj
 0001:0000397c       GetSerialObject            1000497c f   serialapp_common_fsl_v2_pdk1_9:serial.obj
 0001:00003a54       SL_ReadModemStatus         10004a54 f   serialapp_common_fsl_v2_pdk1_9:serialhw.obj
 0001:00003af0       SL_ReadLineStatus          10004af0 f   serialapp_common_fsl_v2_pdk1_9:serialhw.obj
 0001:00003c98       SL_ClearPendingInts        10004c98 f   serialapp_common_fsl_v2_pdk1_9:serialhw.obj
 0001:00003d58       SL_SetStopBits             10004d58 f   serialapp_common_fsl_v2_pdk1_9:serialhw.obj
 0001:00003f04       SL_SetBaudRate             10004f04 f   serialapp_common_fsl_v2_pdk1_9:serialhw.obj
 0001:00004128       SL_SetByteSize             10005128 f   serialapp_common_fsl_v2_pdk1_9:serialhw.obj
 0001:00004360       SL_SetParity               10005360 f   serialapp_common_fsl_v2_pdk1_9:serialhw.obj
 0001:000045a8       SL_Reset                   100055a8 f   serialapp_common_fsl_v2_pdk1_9:serialhw.obj
 0001:000046a8       SL_Init                    100056a8 f   serialapp_common_fsl_v2_pdk1_9:serialhw.obj
 0001:0000478c       SL_Deinit                  1000578c f   serialapp_common_fsl_v2_pdk1_9:serialhw.obj
 0001:00004850       SL_Open                    10005850 f   serialapp_common_fsl_v2_pdk1_9:serialhw.obj
 0001:00004bf0       SL_Close                   10005bf0 f   serialapp_common_fsl_v2_pdk1_9:serialhw.obj
 0001:00004d20       SL_PowerOff                10005d20 f   serialapp_common_fsl_v2_pdk1_9:serialhw.obj
 0001:00004da4       SL_PowerOn                 10005da4 f   serialapp_common_fsl_v2_pdk1_9:serialhw.obj
 0001:00004e30       SL_GetIntrType             10005e30 f   serialapp_common_fsl_v2_pdk1_9:serialhw.obj
 0001:00005120       SL_RxIntrHandler           10006120 f   serialapp_common_fsl_v2_pdk1_9:serialhw.obj
 0001:000055e8       SL_TxIntrHandler           100065e8 f   serialapp_common_fsl_v2_pdk1_9:serialhw.obj
 0001:00005ae4       SL_ModemIntrHandler        10006ae4 f   serialapp_common_fsl_v2_pdk1_9:serialhw.obj
 0001:00005b90       SL_LineIntrHandler         10006b90 f   serialapp_common_fsl_v2_pdk1_9:serialhw.obj
 0001:00005ba0       SL_GetRxBufferSize         10006ba0 f   serialapp_common_fsl_v2_pdk1_9:serialhw.obj
 0001:00005ba8       SL_ClearDTR                10006ba8 f   serialapp_common_fsl_v2_pdk1_9:serialhw.obj
 0001:00005bac       SL_SetDTR                  10006bac f   serialapp_common_fsl_v2_pdk1_9:serialhw.obj
 0001:00005bb8       SL_ClearRTS                10006bb8 f   serialapp_common_fsl_v2_pdk1_9:serialhw.obj
 0001:00005cbc       SL_SetRTS                  10006cbc f   serialapp_common_fsl_v2_pdk1_9:serialhw.obj
 0001:00005dcc       SL_ClearBreak              10006dcc f   serialapp_common_fsl_v2_pdk1_9:serialhw.obj
 0001:00005ef4       SL_SetBreak                10006ef4 f   serialapp_common_fsl_v2_pdk1_9:serialhw.obj
 0001:0000601c       SL_XmitComChar             1000701c f   serialapp_common_fsl_v2_pdk1_9:serialhw.obj
 0001:0000618c       SL_GetStatus               1000718c f   serialapp_common_fsl_v2_pdk1_9:serialhw.obj
 0001:00006244       SL_GetModemStatus          10007244 f   serialapp_common_fsl_v2_pdk1_9:serialhw.obj
 0001:000062c8       SL_PurgeComm               100072c8 f   serialapp_common_fsl_v2_pdk1_9:serialhw.obj
 0001:00006320       SL_SetDCB                  10007320 f   serialapp_common_fsl_v2_pdk1_9:serialhw.obj
 0001:00006534       SL_SetCommTimeouts         10007534 f   serialapp_common_fsl_v2_pdk1_9:serialhw.obj
 0001:00006550       SL_Ioctl                   10007550 f   serialapp_common_fsl_v2_pdk1_9:serialhw.obj
 0001:0000673c       HalAllocateCommonBuffer    1000773c f   ceddk:CEDDK.dll
 0001:0000674c       HalFreeCommonBuffer        1000774c f   ceddk:CEDDK.dll
 0001:0000675c       MmMapIoSpace               1000775c f   ceddk:CEDDK.dll
 0001:0000676c       HalTranslateBusAddress     1000776c f   ceddk:CEDDK.dll
 0001:0000677c       MmUnmapIoSpace             1000777c f   ceddk:CEDDK.dll
 0001:0000678c       TerminateProcess           1000778c f   coredll:COREDLL.dll
 0001:0000679c       NKDbgPrintfW               1000779c f   coredll:COREDLL.dll
 0001:000067ac       KernelIoControl            100077ac f   coredll:COREDLL.dll
 0001:000067bc       DDKApbxDmaClearCommandCmpltIrq 100077bc f   cspddk:CSPDDK.dll
 0001:000067cc       DDKApbxStartDma            100077cc f   cspddk:CSPDDK.dll
 0001:000067dc       DDKApbxDmaEnableCommandCmpltIrq 100077dc f   cspddk:CSPDDK.dll
 0001:000067ec       DDKApbxDmaInitChan         100077ec f   cspddk:CSPDDK.dll
 0001:000067fc       DDKApbxStopDma             100077fc f   cspddk:CSPDDK.dll
 0001:0000680c       DDKApbxDmaClearErrorIrq    1000780c f   cspddk:CSPDDK.dll
 0001:0000681c       DDKApbxDmaGetErrorStatus   1000781c f   cspddk:CSPDDK.dll
 0001:0000682c       DDKApbxDmaGetActiveIrq     1000782c f   cspddk:CSPDDK.dll
 0001:0000683c       __C_specific_handler       1000783c f   corelib1:COREDLL.dll
 0001:0000684c       __rt_udiv                  1000784c f   corelib1:COREDLL.dll
 0001:000069e0       __IMPORT_DESCRIPTOR_COREDLL 100079e0     coredll:COREDLL.dll
 0001:000069f4       __IMPORT_DESCRIPTOR_CSPDDK 100079f4     cspddk:CSPDDK.dll
 0001:00006a08       __IMPORT_DESCRIPTOR_CEDDK  10007a08     ceddk:CEDDK.dll
 0001:00006a1c       __NULL_IMPORT_DESCRIPTOR   10007a1c     coredll:COREDLL.dll
 0002:00000000       __imp_HalTranslateBusAddress 10008000     ceddk:CEDDK.dll
 0002:00000004       __imp_MmMapIoSpace         10008004     ceddk:CEDDK.dll
 0002:00000008       __imp_HalFreeCommonBuffer  10008008     ceddk:CEDDK.dll
 0002:0000000c       __imp_HalAllocateCommonBuffer 1000800c     ceddk:CEDDK.dll
 0002:00000010       __imp_MmUnmapIoSpace       10008010     ceddk:CEDDK.dll
 0002:00000014       \177CEDDK_NULL_THUNK_DATA  10008014     ceddk:CEDDK.dll
 0002:00000018       __imp_CloseHandle          10008018     coredll:COREDLL.dll
 0002:0000001c       __imp_Sleep                1000801c     coredll:COREDLL.dll
 0002:00000020       __imp_WaitForSingleObject  10008020     coredll:COREDLL.dll
 0002:00000024       __imp_CeSetThreadPriority  10008024     coredll:COREDLL.dll
 0002:00000028       __imp_CeGetThreadPriority  10008028     coredll:COREDLL.dll
 0002:0000002c       __imp_SetLastError         1000802c     coredll:COREDLL.dll
 0002:00000030       __imp_LocalFree            10008030     coredll:COREDLL.dll
 0002:00000034       __imp_DeleteCriticalSection 10008034     coredll:COREDLL.dll
 0002:00000038       __imp_SetThreadPriority    10008038     coredll:COREDLL.dll
 0002:0000003c       __imp_InterlockedDecrement 1000803c     coredll:COREDLL.dll
 0002:00000040       __imp_GetTickCount         10008040     coredll:COREDLL.dll
 0002:00000044       __imp_CeSafeCopyMemory     10008044     coredll:COREDLL.dll
 0002:00000048       __imp_InterlockedIncrement 10008048     coredll:COREDLL.dll
 0002:0000004c       __imp_InterlockedExchange  1000804c     coredll:COREDLL.dll
 0002:00000050       __imp_InterlockedCompareExchange 10008050     coredll:COREDLL.dll
 0002:00000054       __imp_ExitThread           10008054     coredll:COREDLL.dll
 0002:00000058       __imp_CreateThread         10008058     coredll:COREDLL.dll
 0002:0000005c       __imp_InterruptInitialize  1000805c     coredll:COREDLL.dll
 0002:00000060       __imp_RegCloseKey          10008060     coredll:COREDLL.dll
 0002:00000064       __imp_InterruptDone        10008064     coredll:COREDLL.dll
 0002:00000068       __imp_OpenDeviceKey        10008068     coredll:COREDLL.dll
 0002:0000006c       __imp_CreateEventW         1000806c     coredll:COREDLL.dll
 0002:00000070       __imp_InitializeCriticalSection 10008070     coredll:COREDLL.dll
 0002:00000074       __imp_LocalAlloc           10008074     coredll:COREDLL.dll
 0002:00000078       __imp_CeFreeAsynchronousBuffer 10008078     coredll:COREDLL.dll
 0002:0000007c       __imp_CeAllocAsynchronousBuffer 1000807c     coredll:COREDLL.dll
 0002:00000080       __imp___C_specific_handler 10008080     corelib1:COREDLL.dll
 0002:00000084       __imp_KernelIoControl      10008084     coredll:COREDLL.dll
 0002:00000088       __imp_NKDbgPrintfW         10008088     coredll:COREDLL.dll
 0002:0000008c       __imp_memcpy               1000808c     corelib1:COREDLL.dll
 0002:00000090       __imp_memset               10008090     corelib1:COREDLL.dll
 0002:00000094       __imp_memmove              10008094     corelib1:COREDLL.dll
 0002:00000098       __imp___security_gen_cookie2 10008098     corelib1:COREDLL.dll
 0002:0000009c       __imp___report_gsfailure   1000809c     corelib1:COREDLL.dll
 0002:000000a0       __imp_free                 100080a0     corelib1:COREDLL.dll
 0002:000000a4       __imp_InterruptDisable     100080a4     coredll:COREDLL.dll
 0002:000000a8       __imp_EnterCriticalSection 100080a8     coredll:COREDLL.dll
 0002:000000ac       __imp_LeaveCriticalSection 100080ac     coredll:COREDLL.dll
 0002:000000b0       __imp_DisableThreadLibraryCalls 100080b0     coredll:COREDLL.dll
 0002:000000b4       __imp_RegQueryValueExW     100080b4     coredll:COREDLL.dll
 0002:000000b8       __imp_EventModify          100080b8     coredll:COREDLL.dll
 0002:000000bc       __imp_TerminateProcess     100080bc     coredll:COREDLL.dll
 0002:000000c0       __imp___rt_udiv            100080c0     corelib1:COREDLL.dll
 0002:000000c4       \177COREDLL_NULL_THUNK_DATA 100080c4     coredll:COREDLL.dll
 0002:000000c8       __imp_DDKIomuxSetPinMux    100080c8     cspddk:CSPDDK.dll
 0002:000000cc       __imp_DDKApbxDmaClearCommandCmpltIrq 100080cc     cspddk:CSPDDK.dll
 0002:000000d0       __imp_DDKApbxStartDma      100080d0     cspddk:CSPDDK.dll
 0002:000000d4       __imp_DDKApbxDmaEnableCommandCmpltIrq 100080d4     cspddk:CSPDDK.dll
 0002:000000d8       __imp_DDKApbxDmaInitChan   100080d8     cspddk:CSPDDK.dll
 0002:000000dc       __imp_DDKApbxStopDma       100080dc     cspddk:CSPDDK.dll
 0002:000000e0       __imp_DDKApbxDmaClearErrorIrq 100080e0     cspddk:CSPDDK.dll
 0002:000000e4       __imp_DDKApbxDmaGetErrorStatus 100080e4     cspddk:CSPDDK.dll
 0002:000000e8       __imp_DDKApbxDmaGetActiveIrq 100080e8     cspddk:CSPDDK.dll
 0002:000000ec       __imp_DDKIomuxSetPadConfig 100080ec     cspddk:CSPDDK.dll
 0002:000000f0       \177CSPDDK_NULL_THUNK_DATA 100080f0     cspddk:CSPDDK.dll
 0002:000000f4       __security_cookie          100080f4     corelib0:seccinit.obj
 0002:000000f8       __security_cookie_complement 100080f8     corelib0:seccinit.obj
 0002:00000100       _exitflag                  10008100     corelib0:cexit.obj
 0002:0000010c       __onexitend                1000810c     <common>
 0002:00000110       __onexitbegin              10008110     <common>

 entry point at        0001:00002d2c

 Static symbols

 0001:000022d8       SerialDispatchThread       100032d8 f   com_mdd2_common_fsl_v2_pdk1_9:mdd.obj
 0001:00002e88       doexit                     10003e88 f   corelib0:cexit.obj
 0001:0000334c       Ser_GetRegistryData        1000434c f   serialapp_common_fsl_v2_pdk1_9:serial.obj
 0001:0000346c       SerInit                    1000446c f   serialapp_common_fsl_v2_pdk1_9:serial.obj
 0001:00003764       SerSerialInit              10004764 f   serialapp_common_fsl_v2_pdk1_9:serial.obj
 0001:00003784       SerPostInit                10004784 f   serialapp_common_fsl_v2_pdk1_9:serial.obj
 0001:00003798       SerOpen                    10004798 f   serialapp_common_fsl_v2_pdk1_9:serial.obj
 0001:000037d8       SerClose                   100047d8 f   serialapp_common_fsl_v2_pdk1_9:serial.obj
 0001:00003880       SerDeinit                  10004880 f   serialapp_common_fsl_v2_pdk1_9:serial.obj
 0001:00003924       SerPowerOff                10004924 f   serialapp_common_fsl_v2_pdk1_9:serial.obj
 0001:00003938       SerPowerOn                 10004938 f   serialapp_common_fsl_v2_pdk1_9:serial.obj
 0001:0000394c       SerGetCommProperties       1000494c f   serialapp_common_fsl_v2_pdk1_9:serial.obj
 0001:0000396c       SerEnableIR                1000496c f   serialapp_common_fsl_v2_pdk1_9:serial.obj
 0001:00003974       SerDisableIR               10004974 f   serialapp_common_fsl_v2_pdk1_9:serial.obj
 0001:000039bc       SetupRXDescDESC            100049bc f   serialapp_common_fsl_v2_pdk1_9:serialhw.obj
