 pxp

 Timestamp is 4f86751c (Thu Apr 12 14:24:28 2012)

 Preferred load address is 10000000

 Start         Length     Name                   Class
 0001:00000000 00000004H .CRT$XCA                CODE
 0001:00000004 00000004H .CRT$XCZ                CODE
 0001:00000008 00000004H .CRT$XIA                CODE
 0001:0000000c 00000004H .CRT$XIZ                CODE
 0001:00000010 00000004H .CRT$XPA                CODE
 0001:00000014 00000004H .CRT$XPZ                CODE
 0001:00000018 00000004H .CRT$XTA                CODE
 0001:0000001c 00000004H .CRT$XTZ                CODE
 0001:00000020 0000091aH .rdata                  CODE
 0001:0000093c 00000020H .rdata$debug            CODE
 0001:0000095c 00001ae8H .text                   CODE
 0001:00002444 00000028H .idata$2                CODE
 0001:0000246c 00000014H .idata$3                CODE
 0001:00002480 00000078H .idata$4                CODE
 0001:000024f8 00000016H .idata$6                CODE
 0001:00002510 000000c5H .edata                  CODE
 0002:00000000 00000078H .idata$5                DATA
 0002:00000078 00000008H .data                   DATA
 0002:00000080 00000014H .bss                    DATA
 0003:00000000 000001a8H .pdata                  DATA

  Address         Publics by Value              Rva+Base       Lib:Object

 0000:00000000       ___safe_se_handler_table   00000000     <absolute>
 0000:00000000       ___safe_se_handler_count   00000000     <absolute>
 0001:00000000       __xc_a                     10001000     corelib0:crt0init.obj
 0001:00000004       __xc_z                     10001004     corelib0:crt0init.obj
 0001:00000008       __xi_a                     10001008     corelib0:crt0init.obj
 0001:0000000c       __xi_z                     1000100c     corelib0:crt0init.obj
 0001:00000010       __xp_a                     10001010     corelib0:crt0init.obj
 0001:00000014       __xp_z                     10001014     corelib0:crt0init.obj
 0001:00000018       __xt_a                     10001018     corelib0:crt0init.obj
 0001:0000001c       __xt_z                     1000101c     corelib0:crt0init.obj
 0001:000000f8       ??_C@_1GK@GABJLDPH@?$AAP?$AAX?$AAP?$AA_?$AAD?$AAl?$AAl?$AAE?$AAn?$AAt?$AAr?$AAy?$AA?3?$AA?5?$AAD?$AAL?$AAL?$AA_?$AAP?$AAR?$AAO?$AAC?$AAE?$AAS?$AAS?$AA_?$AAD?$AAE?$AAT?$AAA?$AAC?$AAH@ 100010f8     pxp_common_fsl_v2_pdk1_9:pxp_io.obj
 0001:00000168       ??_C@_1GK@CEJMJPAB@?$AAP?$AAX?$AAP?$AA_?$AAD?$AAl?$AAl?$AAE?$AAn?$AAt?$AAr?$AAy?$AA?3?$AA?5?$AAD?$AAL?$AAL?$AA_?$AAP?$AAR?$AAO?$AAC?$AAE?$AAS?$AAS?$AA_?$AAA?$AAT?$AAT?$AAA?$AAC?$AAH@ 10001168     pxp_common_fsl_v2_pdk1_9:pxp_io.obj
 0001:000001d4       ??_C@_1CO@IKDJECPF@?$AAP?$AAX?$AAP?$AA_?$AAI?$AAn?$AAi?$AAt?$AA?5?$AA?9?$AA?5?$AAh?$AAD?$AAe?$AAv?$AA?$DN?$AA0?$AAx?$AA?$CF?$AAx?$AA?$AN?$AA?6?$AA?$AA@ 100011d4     pxp_common_fsl_v2_pdk1_9:pxp_io.obj
 0001:00000204       ??_C@_1DM@OCCODJJE@?$AAP?$AAX?$AAP?$AA_?$AAI?$AAn?$AAi?$AAt?$AA?3?$AA?5?$AAP?$AAX?$AAP?$AA?5?$AAC?$AAl?$AAa?$AAs?$AAs?$AA?5?$AAF?$AAa?$AAi?$AAl?$AAe?$AAd?$AA?$CB?$AA?$AN?$AA?6?$AA?$AA@ 10001204     pxp_common_fsl_v2_pdk1_9:pxp_io.obj
 0001:00000310       ??_C@_1CC@BMADBLOP@?$AA?$CF?$AA0?$AA8?$AAx?$AA?5?$AA?$CF?$AA0?$AA8?$AAx?$AA?5?$AA?$CF?$AA0?$AA8?$AAx?$AA?$AN?$AA?6?$AA?$AA@ 10001310     pxp_common_fsl_v2_pdk1_9:pxpclass.obj
 0001:00000334       ??_C@_1CE@INAMMAGF@?$AA?6?$AA?6?$AAP?$AAX?$AAP?$AA?5?$AAR?$AAe?$AAg?$AAi?$AAs?$AAt?$AAe?$AAr?$AAs?$AA?$AN?$AA?6?$AA?$AA@ 10001334     pxp_common_fsl_v2_pdk1_9:pxpclass.obj
 0001:00000358       ??_C@_1CM@IAJDADFE@?$AA?$CF?$AA0?$AA8?$AAx?$AA?5?$AA?$CF?$AA0?$AA8?$AAx?$AA?5?$AA?$CF?$AA0?$AA8?$AAx?$AA?5?$AA?$CF?$AA0?$AA8?$AAx?$AA?$AN?$AA?6?$AA?$AA@ 10001358     pxp_common_fsl_v2_pdk1_9:pxpclass.obj
 0001:00000384       ??_C@_1DG@OGHFDLEK@?$AA?$CF?$AA0?$AA8?$AAx?$AA?5?$AA?$CF?$AA0?$AA8?$AAx?$AA?5?$AA?$CF?$AA0?$AA8?$AAx?$AA?5?$AA?$CF?$AA0?$AA8?$AAx?$AA?5?$AA?$CF?$AA0?$AA8?$AAx?$AA?$AN?$AA?6?$AA?$AA@ 10001384     pxp_common_fsl_v2_pdk1_9:pxpclass.obj
 0001:000003bc       ??_C@_1DA@LMOAAHBG@?$AAP?$AAx?$AAp?$AAC?$AAl?$AAa?$AAs?$AAs?$AA?3?$AA?3?$AAP?$AAx?$AAp?$AAI?$AAn?$AAt?$AAr?$AAT?$AAh?$AAr?$AAe?$AAa?$AAd?$AA?$AA@ 100013bc     pxp_common_fsl_v2_pdk1_9:pxpclass.obj
 0001:000003f0       ??_C@_1FC@FPOKHNKO@?$AA?$CF?$AAs?$AA?$CI?$AA?$CJ?$AA?3?$AA?5?$AAW?$AAa?$AAi?$AAt?$AAi?$AAn?$AAg?$AA?5?$AAf?$AAo?$AAr?$AA?5?$AAP?$AAX?$AAP?$AA?5?$AAi?$AAn?$AAt?$AAe?$AAr?$AAr?$AAu?$AAp?$AAt?$AA?5@ 100013f0     pxp_common_fsl_v2_pdk1_9:pxpclass.obj
 0001:00000444       ??_C@_1DO@FBBFFDBD@?$AAP?$AAx?$AAp?$AAC?$AAl?$AAa?$AAs?$AAs?$AA?3?$AA?3?$AAP?$AAx?$AAp?$AAW?$AAa?$AAi?$AAt?$AAF?$AAo?$AAr?$AAC?$AAo?$AAm?$AAp?$AAl?$AAe?$AAt?$AAi?$AAo?$AAn?$AA?$AA@ 10001444     pxp_common_fsl_v2_pdk1_9:pxpclass.obj
 0001:00000488       ??_C@_1FI@EMMKMFIE@?$AA?$CF?$AAs?$AA?$CI?$AA?$CJ?$AA?3?$AA?5?$AAW?$AAa?$AAi?$AAt?$AAi?$AAn?$AAg?$AA?5?$AAf?$AAo?$AAr?$AA?5?$AAP?$AAX?$AAP?$AA?5?$AAi?$AAn?$AAt?$AAe?$AAr?$AAr?$AAu?$AAp?$AAt?$AA?5@ 10001488     pxp_common_fsl_v2_pdk1_9:pxpclass.obj
 0001:000004e0       ??_C@_1DM@GHDGACBI@?$AA?$CF?$AAs?$AA?3?$AA?5?$AAE?$AAn?$AAa?$AAb?$AAl?$AAi?$AAn?$AAg?$AA?5?$AAp?$AAi?$AAx?$AAe?$AAl?$AA?5?$AAp?$AAi?$AAp?$AAe?$AAl?$AAi?$AAn?$AAe?$AA?$AN?$AA?6?$AA?$AA@ 100014e0     pxp_common_fsl_v2_pdk1_9:pxpclass.obj
 0001:00000520       ??_C@_1EI@HBFALFI@?$AA?$CF?$AAs?$AA?3?$AA?5?$AAc?$AAr?$AAe?$AAa?$AAt?$AAe?$AA?5?$AAP?$AAX?$AAP?$AA?5?$AAI?$AAS?$AAR?$AA?5?$AAt?$AAh?$AAr?$AAe?$AAa?$AAd?$AA?5?$AAf?$AAa?$AAi?$AAl?$AAe?$AAd@ 10001520     pxp_common_fsl_v2_pdk1_9:pxpclass.obj
 0001:00000568       ??_C@_1DO@GDLJAKBF@?$AAE?$AAr?$AAr?$AAo?$AAr?$AA?5?$AAi?$AAn?$AAi?$AAt?$AAi?$AAa?$AAl?$AAi?$AAz?$AAi?$AAn?$AAg?$AA?5?$AAi?$AAn?$AAt?$AAe?$AAr?$AAr?$AAu?$AAp?$AAt?$AA?6?$AA?$AN?$AA?$AA@ 10001568     pxp_common_fsl_v2_pdk1_9:pxpclass.obj
 0001:000005a8       ??_C@_1HG@LLPCNE@?$AAE?$AAR?$AAR?$AAO?$AAR?$AA?3?$AA?5?$AAF?$AAa?$AAi?$AAl?$AAe?$AAd?$AA?5?$AAt?$AAo?$AA?5?$AAo?$AAb?$AAt?$AAa?$AAi?$AAn?$AA?5?$AAs?$AAy?$AAs?$AAi?$AAn?$AAt?$AAr?$AA?5@ 100015a8     pxp_common_fsl_v2_pdk1_9:pxpclass.obj
 0001:00000620       ??_C@_1GI@JAPGCEFB@?$AA?$CF?$AAs?$AA?3?$AA?5?$AAC?$AAr?$AAe?$AAa?$AAt?$AAe?$AAE?$AAv?$AAe?$AAn?$AAt?$AA?5?$AAf?$AAo?$AAr?$AA?5?$AAP?$AAX?$AAP?$AA?5?$AAO?$AAp?$AAe?$AAr?$AAa?$AAt?$AAi?$AAo@ 10001620     pxp_common_fsl_v2_pdk1_9:pxpclass.obj
 0001:00000688       ??_C@_1FI@EOEGOIDA@?$AA?$CF?$AAs?$AA?3?$AA?5?$AAC?$AAr?$AAe?$AAa?$AAt?$AAe?$AAE?$AAv?$AAe?$AAn?$AAt?$AA?5?$AAf?$AAo?$AAr?$AA?5?$AAP?$AAX?$AAP?$AA?5?$AAC?$AAo?$AAm?$AAp?$AAl?$AAe?$AAt?$AAi@ 10001688     pxp_common_fsl_v2_pdk1_9:pxpclass.obj
 0001:000006e0       ??_C@_1CE@KOJNGJK@?$AAP?$AAx?$AAp?$AAC?$AAl?$AAa?$AAs?$AAs?$AA?3?$AA?3?$AAP?$AAx?$AAp?$AAI?$AAn?$AAi?$AAt?$AA?$AA@ 100016e0     pxp_common_fsl_v2_pdk1_9:pxpclass.obj
 0001:00000708       ??_C@_1FG@NCEBPDBC@?$AA?$CF?$AAs?$AA?3?$AA?5?$AAC?$AAr?$AAe?$AAa?$AAt?$AAe?$AAE?$AAv?$AAe?$AAn?$AAt?$AA?5?$AAf?$AAo?$AAr?$AA?5?$AAP?$AAX?$AAP?$AA?5?$AAI?$AAn?$AAt?$AAe?$AAr?$AAr?$AAu?$AAp@ 10001708     pxp_common_fsl_v2_pdk1_9:pxpclass.obj
 0001:00000760       ??_C@_1EC@JDAHOONF@?$AAP?$AAx?$AAp?$AAI?$AAn?$AAi?$AAt?$AA?3?$AA?5?$AA?5?$AAA?$AAl?$AAl?$AAo?$AAc?$AAP?$AAh?$AAy?$AAs?$AAM?$AAe?$AAm?$AA?5?$AAf?$AAa?$AAi?$AAl?$AAe?$AAd?$AA?$CB?$AA?$AN?$AA?6@ 10001760     pxp_common_fsl_v2_pdk1_9:pxpclass.obj
 0001:000007a8       ??_C@_1KA@FAFJAFGI@?$AAD?$AA?3?$AA?2?$AAW?$AAI?$AAN?$AAC?$AAE?$AA6?$AA0?$AA0?$AA?2?$AAP?$AAL?$AAA?$AAT?$AAF?$AAO?$AAR?$AAM?$AA?2?$AAC?$AAO?$AAM?$AAM?$AAO?$AAN?$AA?2?$AAS?$AAR?$AAC?$AA?2@ 100017a8     pxp_common_fsl_v2_pdk1_9:pxpclass.obj
 0001:00000848       ??_C@_1CI@OHCJFJPM@?$AAE?$AAR?$AAR?$AAO?$AAR?$AA?3?$AA?5?$AA?$CF?$AAs?$AA?5?$AAl?$AAi?$AAn?$AAe?$AA?5?$AA?$CF?$AAd?$AA?3?$AA?5?$AA?$AA@ 10001848     pxp_common_fsl_v2_pdk1_9:pxpclass.obj
 0001:00000870       ??_C@_1EC@LBLAEKK@?$AAP?$AAx?$AAp?$AAI?$AAn?$AAi?$AAt?$AA?3?$AA?5?$AA?5?$AAM?$AAm?$AAM?$AAa?$AAp?$AAI?$AAo?$AAS?$AAp?$AAa?$AAc?$AAe?$AA?5?$AAf?$AAa?$AAi?$AAl?$AAe?$AAd?$AA?$CB?$AA?$AN?$AA?6@ 10001870     pxp_common_fsl_v2_pdk1_9:pxpclass.obj
 0001:000008b8       ??_C@_1IC@IBHJJNBF@?$AAM?$AAX?$AA2?$AA8?$AA?5?$AAP?$AAX?$AAP?$AA?5?$AAd?$AAo?$AAe?$AAs?$AAn?$AA?8?$AAt?$AA?5?$AAs?$AAu?$AAp?$AAp?$AAo?$AAr?$AAt?$AA?5?$AA?$CF?$AAd?$AA?5?$AAb?$AAl?$AAo?$AAc@ 100018b8     pxp_mx28_fsl_v2_pdk1_9:soc_pxp.obj
 0001:0000095c       ?PXP_Deinit@@YAHK@Z        1000195c f   pxp_common_fsl_v2_pdk1_9:pxp_io.obj
 0001:00000984       ?PXP_Open@@YAKKKK@Z        10001984 f   pxp_common_fsl_v2_pdk1_9:pxp_io.obj
 0001:000009bc       ?PXP_Close@@YAHK@Z         100019bc f   pxp_common_fsl_v2_pdk1_9:pxp_io.obj
 0001:000009e0       ?PXP_PowerDown@@YAXK@Z     100019e0 f   pxp_common_fsl_v2_pdk1_9:pxp_io.obj
 0001:000009f0       ?PXP_PowerUp@@YAXK@Z       100019f0 f   pxp_common_fsl_v2_pdk1_9:pxp_io.obj
 0001:00000a00       ?PXP_IOControl@@YAHKKPAEK0KPAK@Z 10001a00 f   pxp_common_fsl_v2_pdk1_9:pxp_io.obj
 0001:00000b4c       DllEntry                   10001b4c f   pxp_common_fsl_v2_pdk1_9:pxp_io.obj
 0001:00000b9c       ?PXP_Init@@YAKPBG@Z        10001b9c f   pxp_common_fsl_v2_pdk1_9:pxp_io.obj
 0001:00000c08       ?PxpEnable@PxpClass@@QAAXXZ 10001c08 f   pxp_common_fsl_v2_pdk1_9:pxpclass.obj
 0001:00000c20       ?PxpDisable@PxpClass@@QAAXXZ 10001c20 f   pxp_common_fsl_v2_pdk1_9:pxpclass.obj
 0001:00000c38       ?PxpIntrEnable@PxpClass@@QAAXH@Z 10001c38 f   pxp_common_fsl_v2_pdk1_9:pxpclass.obj
 0001:00000c4c       ?PxpSetS0BufferAddrGroup@PxpClass@@QAAXPAUpxpS0BufferAddrGroupStruct@@@Z 10001c4c f   pxp_common_fsl_v2_pdk1_9:pxpclass.obj
 0001:00000ca0       ?PxpSetOutputBuffer1Addr@PxpClass@@QAAXPAI@Z 10001ca0 f   pxp_common_fsl_v2_pdk1_9:pxpclass.obj
 0001:00000cb8       ?PxpSetOutputBuffer2Addr@PxpClass@@QAAXPAI@Z 10001cb8 f   pxp_common_fsl_v2_pdk1_9:pxpclass.obj
 0001:00000cd0       ?PxpSetS0BufferOffsetInOutput@PxpClass@@QAAXPAUpxpCoordinateStruct@@@Z 10001cd0 f   pxp_common_fsl_v2_pdk1_9:pxpclass.obj
 0001:00000d2c       ?PxpSetS0BufferSize@PxpClass@@QAAXPAUpxpRectSizeStruct@@@Z 10001d2c f   pxp_common_fsl_v2_pdk1_9:pxpclass.obj
 0001:00000d90       ?PxpSetS0BufferColorKey@PxpClass@@QAAXPAUpxpColorKeyStruct@@@Z 10001d90 f   pxp_common_fsl_v2_pdk1_9:pxpclass.obj
 0001:00000dcc       ?PxpSetOverlayColorKey@PxpClass@@QAAXPAUpxpColorKeyStruct@@@Z 10001dcc f   pxp_common_fsl_v2_pdk1_9:pxpclass.obj
 0001:00000e08       ?PxpSetOverlayBuffersAddr@PxpClass@@QAAXPAUpxpOverlayBuffersAddrStruct@@@Z 10001e08 f   pxp_common_fsl_v2_pdk1_9:pxpclass.obj
 0001:00000e38       ?PxpSetOverlayBuffersPos@PxpClass@@QAAXPAUpxpOverlayBuffersPosStruct@@@Z 10001e38 f   pxp_common_fsl_v2_pdk1_9:pxpclass.obj
 0001:00000f0c       ?PxpSetS0BufProperty@PxpClass@@QAAXPAUpxpS0PropertyStruct@@@Z 10001f0c f   pxp_common_fsl_v2_pdk1_9:pxpclass.obj
 0001:0000135c       ?PxpSetOutputProperty@PxpClass@@QAAXPAUpxpOutPropertyStruct@@@Z 1000235c f   pxp_common_fsl_v2_pdk1_9:pxpclass.obj
 0001:000014d0       ?PxpSetOverlayBufsProperty@PxpClass@@QAAXPAUpxpOverlayPropertyStruct@@@Z 100024d0 f   pxp_common_fsl_v2_pdk1_9:pxpclass.obj
 0001:0000161c       ?PXPDumpRegs@PxpClass@@AAAXXZ 1000261c f   pxp_common_fsl_v2_pdk1_9:pxpclass.obj
 0001:00001748       ?PxpPowerUp@PxpClass@@QAAXXZ 10002748 f   pxp_common_fsl_v2_pdk1_9:pxpclass.obj
 0001:000017b4       ?PxpPowerDown@PxpClass@@QAAXXZ 100027b4 f   pxp_common_fsl_v2_pdk1_9:pxpclass.obj
 0001:00001828       ?PxpOpen@PxpClass@@QAAXXZ  10002828 f   pxp_common_fsl_v2_pdk1_9:pxpclass.obj
 0001:00001834       ?PxpClose@PxpClass@@QAAXXZ 10002834 f   pxp_common_fsl_v2_pdk1_9:pxpclass.obj
 0001:00001840       ?PxpResetDriverStatus@PxpClass@@QAAXXZ 10002840 f   pxp_common_fsl_v2_pdk1_9:pxpclass.obj
 0001:000018cc       ?PxpStartProcess@PxpClass@@QAAXH@Z 100028cc f   pxp_common_fsl_v2_pdk1_9:pxpclass.obj
 0001:00001984       ?PxpIntrThread@PxpClass@@CAXPAX@Z 10002984 f   pxp_common_fsl_v2_pdk1_9:pxpclass.obj
 0001:00001a64       ?PxpWaitForCompletion@PxpClass@@QAAXXZ 10002a64 f   pxp_common_fsl_v2_pdk1_9:pxpclass.obj
 0001:00001ac0       ?PxpSetBlockSize@PxpClass@@QAAXPAI@Z 10002ac0 f   pxp_common_fsl_v2_pdk1_9:pxpclass.obj
 0001:00001ae8       ?PxpGetDownScaleFactorExponent@PxpClass@@QAAXPAI@Z 10002ae8 f   pxp_common_fsl_v2_pdk1_9:pxpclass.obj
 0001:00001afc       ?PxpDeinit@PxpClass@@AAAXXZ 10002afc f   pxp_common_fsl_v2_pdk1_9:pxpclass.obj
 0001:00001b74       ?PxpConfigureGeneral@PxpClass@@QAAXPAUpxpParaConfigStruct@@@Z 10002b74 f   pxp_common_fsl_v2_pdk1_9:pxpclass.obj
 0001:00001c78       ??1PxpClass@@QAA@XZ        10002c78 f   pxp_common_fsl_v2_pdk1_9:pxpclass.obj
 0001:00001c88       ?PxpInit@PxpClass@@AAAHXZ  10002c88 f   pxp_common_fsl_v2_pdk1_9:pxpclass.obj
 0001:00001f28       ??0PxpClass@@QAA@XZ        10002f28 f   pxp_common_fsl_v2_pdk1_9:pxpclass.obj
 0001:00001f40       ?CSPPXPGetBaseAddr@@YAKXZ  10002f40 f   pxp_mx28_fsl_v2_pdk1_9:soc_pxp.obj
 0001:00001f4c       ?PXPGetIRQ@@YAKXZ          10002f4c f   pxp_mx28_fsl_v2_pdk1_9:soc_pxp.obj
 0001:00001f54       ?PXPIntrEnable@@YAXPAUpxp_registers@@H@Z 10002f54 f   pxp_mx28_fsl_v2_pdk1_9:soc_pxp.obj
 0001:00001f8c       ?PXPSetBlockSizeValue@@YAXPAUpxp_registers@@PAI1@Z 10002f8c f   pxp_mx28_fsl_v2_pdk1_9:soc_pxp.obj
 0001:00002034       ?PXPSetScaleFactor@@YAXPAUpxp_registers@@II@Z 10003034 f   pxp_mx28_fsl_v2_pdk1_9:soc_pxp.obj
 0001:0000206c       ?PXPOperateComplete@@YAXPAX@Z 1000306c f   pxp_mx28_fsl_v2_pdk1_9:soc_pxp.obj
 0001:00002070       ?PXPLoadComplete@@YAXPAXH@Z 10003070 f   pxp_mx28_fsl_v2_pdk1_9:soc_pxp.obj
 0001:00002088       ?PXPGetDownScaleFactorExp@@YAXPAI@Z 10003088 f   pxp_mx28_fsl_v2_pdk1_9:soc_pxp.obj
 0001:00002094       DisableThreadLibraryCalls  10003094 f   coredll:COREDLL.dll
 0001:000020a4       NKDbgPrintfW               100030a4 f   coredll:COREDLL.dll
 0001:000020b4       EventModify                100030b4 f   coredll:COREDLL.dll
 0001:000020c4       Sleep                      100030c4 f   coredll:COREDLL.dll
 0001:000020d4       InterruptDone              100030d4 f   coredll:COREDLL.dll
 0001:000020e4       WaitForSingleObject        100030e4 f   coredll:COREDLL.dll
 0001:000020f4       CeSetThreadPriority        100030f4 f   coredll:COREDLL.dll
 0001:00002104       CloseHandle                10003104 f   coredll:COREDLL.dll
 0001:00002114       FreePhysMem                10003114 f   coredll:COREDLL.dll
 0001:00002124       CreateThread               10003124 f   coredll:COREDLL.dll
 0001:00002134       InterruptInitialize        10003134 f   coredll:COREDLL.dll
 0001:00002144       KernelIoControl            10003144 f   coredll:COREDLL.dll
 0001:00002154       CreateEventW               10003154 f   coredll:COREDLL.dll
 0001:00002164       AllocPhysMem               10003164 f   coredll:COREDLL.dll
 0001:00002174       MmUnmapIoSpace             10003174 f   ceddk:CEDDK.dll
 0001:00002184       MmMapIoSpace               10003184 f   ceddk:CEDDK.dll
 0001:00002194       _DllEntryCRTStartup        10003194 f   corelib0:pegdentry.obj
 0001:000022a4       _cexit                     100032a4 f   corelib0:cexit.obj
 0001:000022c0       _initterm                  100032c0 f   corelib0:crt0dat.obj
 0001:000022f4       _cinit                     100032f4 f   corelib0:crt0dat.obj
 0001:00002328       __security_init_cookie     10003328 f   corelib0:seccinit.obj
 0001:00002384       ??3@YAXPAX@Z               10003384 f   corelib1:COREDLL.dll
 0001:00002394       ??2@YAPAXI@Z               10003394 f   corelib1:COREDLL.dll
 0001:000023a4       __divd                     100033a4 f   corelib1:COREDLL.dll
 0001:000023b4       __dtou                     100033b4 f   corelib1:COREDLL.dll
 0001:000023c4       __stod                     100033c4 f   corelib1:COREDLL.dll
 0001:000023d4       __muld                     100033d4 f   corelib1:COREDLL.dll
 0001:000023e4       __dtoi                     100033e4 f   corelib1:COREDLL.dll
 0001:000023f4       memset                     100033f4 f   corelib1:COREDLL.dll
 0001:00002404       memcpy                     10003404 f   corelib1:COREDLL.dll
 0001:00002414       free                       10003414 f   corelib1:COREDLL.dll
 0001:00002424       __security_gen_cookie2     10003424 f   corelib1:COREDLL.dll
 0001:00002434       TerminateProcess           10003434 f   coredll:COREDLL.dll
 0001:00002444       __IMPORT_DESCRIPTOR_COREDLL 10003444     coredll:COREDLL.dll
 0001:00002458       __IMPORT_DESCRIPTOR_CEDDK  10003458     ceddk:CEDDK.dll
 0001:0000246c       __NULL_IMPORT_DESCRIPTOR   1000346c     coredll:COREDLL.dll
 0002:00000000       __imp_MmMapIoSpace         10004000     ceddk:CEDDK.dll
 0002:00000004       __imp_MmUnmapIoSpace       10004004     ceddk:CEDDK.dll
 0002:00000008       \177CEDDK_NULL_THUNK_DATA  10004008     ceddk:CEDDK.dll
 0002:0000000c       __imp_Sleep                1000400c     coredll:COREDLL.dll
 0002:00000010       __imp_InterruptDone        10004010     coredll:COREDLL.dll
 0002:00000014       __imp_WaitForSingleObject  10004014     coredll:COREDLL.dll
 0002:00000018       __imp_CeSetThreadPriority  10004018     coredll:COREDLL.dll
 0002:0000001c       __imp_CloseHandle          1000401c     coredll:COREDLL.dll
 0002:00000020       __imp_FreePhysMem          10004020     coredll:COREDLL.dll
 0002:00000024       __imp_EventModify          10004024     coredll:COREDLL.dll
 0002:00000028       __imp_InterruptInitialize  10004028     coredll:COREDLL.dll
 0002:0000002c       __imp_KernelIoControl      1000402c     coredll:COREDLL.dll
 0002:00000030       __imp_CreateEventW         10004030     coredll:COREDLL.dll
 0002:00000034       __imp_AllocPhysMem         10004034     coredll:COREDLL.dll
 0002:00000038       __imp_NKDbgPrintfW         10004038     coredll:COREDLL.dll
 0002:0000003c       __imp_DisableThreadLibraryCalls 1000403c     coredll:COREDLL.dll
 0002:00000040       __imp_CreateThread         10004040     coredll:COREDLL.dll
 0002:00000044       __imp_??3@YAXPAX@Z         10004044     corelib1:COREDLL.dll
 0002:00000048       __imp_??2@YAPAXI@Z         10004048     corelib1:COREDLL.dll
 0002:0000004c       __imp___divd               1000404c     corelib1:COREDLL.dll
 0002:00000050       __imp___dtou               10004050     corelib1:COREDLL.dll
 0002:00000054       __imp___stod               10004054     corelib1:COREDLL.dll
 0002:00000058       __imp___muld               10004058     corelib1:COREDLL.dll
 0002:0000005c       __imp___dtoi               1000405c     corelib1:COREDLL.dll
 0002:00000060       __imp_memset               10004060     corelib1:COREDLL.dll
 0002:00000064       __imp_memcpy               10004064     corelib1:COREDLL.dll
 0002:00000068       __imp_free                 10004068     corelib1:COREDLL.dll
 0002:0000006c       __imp___security_gen_cookie2 1000406c     corelib1:COREDLL.dll
 0002:00000070       __imp_TerminateProcess     10004070     coredll:COREDLL.dll
 0002:00000074       \177COREDLL_NULL_THUNK_DATA 10004074     coredll:COREDLL.dll
 0002:00000078       __security_cookie          10004078     corelib0:seccinit.obj
 0002:0000007c       __security_cookie_complement 1000407c     corelib0:seccinit.obj
 0002:00000088       _exitflag                  10004088     corelib0:cexit.obj
 0002:0000008c       __onexitend                1000408c     <common>
 0002:00000090       __onexitbegin              10004090     <common>

 entry point at        0001:00002194

 Static symbols

 0001:000021dc       doexit                     100031dc f   corelib0:cexit.obj
